
ch13_i2c_cubeide.elf:     file format elf32-littlearm

Sections:
Idx Name          Size      VMA       LMA       File off  Algn
  0 .isr_vector   000000bc  08000000  08000000  00001000  2**0
                  CONTENTS, ALLOC, LOAD, READONLY, DATA
  1 .text         00000f30  080000bc  080000bc  000010bc  2**2
                  CONTENTS, ALLOC, LOAD, READONLY, CODE
  2 .rodata       00000018  08000fec  08000fec  00001fec  2**2
                  CONTENTS, ALLOC, LOAD, READONLY, DATA
  3 .ARM.extab    00000000  08001004  08001004  0000305c  2**0
                  CONTENTS, READONLY
  4 .ARM          00000000  08001004  08001004  0000305c  2**0
                  CONTENTS, READONLY
  5 .preinit_array 00000000  08001004  08001004  0000305c  2**0
                  CONTENTS, ALLOC, LOAD, DATA
  6 .init_array   00000004  08001004  08001004  00002004  2**2
                  CONTENTS, ALLOC, LOAD, READONLY, DATA
  7 .fini_array   00000004  08001008  08001008  00002008  2**2
                  CONTENTS, ALLOC, LOAD, READONLY, DATA
  8 .data         0000005c  20000000  0800100c  00003000  2**2
                  CONTENTS, ALLOC, LOAD, DATA
  9 .bss          0000016c  2000005c  08001068  0000305c  2**2
                  ALLOC
 10 ._user_heap_stack 00000600  200001c8  08001068  000031c8  2**0
                  ALLOC
 11 .ARM.attributes 00000028  00000000  00000000  0000305c  2**0
                  CONTENTS, READONLY
 12 .debug_info   00000f67  00000000  00000000  00003084  2**0
                  CONTENTS, READONLY, DEBUGGING, OCTETS
 13 .debug_abbrev 00000513  00000000  00000000  00003feb  2**0
                  CONTENTS, READONLY, DEBUGGING, OCTETS
 14 .debug_aranges 00000170  00000000  00000000  00004500  2**3
                  CONTENTS, READONLY, DEBUGGING, OCTETS
 15 .debug_rnglists 000000f8  00000000  00000000  00004670  2**0
                  CONTENTS, READONLY, DEBUGGING, OCTETS
 16 .debug_macro  0000fe40  00000000  00000000  00004768  2**0
                  CONTENTS, READONLY, DEBUGGING, OCTETS
 17 .debug_line   000021fa  00000000  00000000  000145a8  2**0
                  CONTENTS, READONLY, DEBUGGING, OCTETS
 18 .debug_str    00055300  00000000  00000000  000167a2  2**0
                  CONTENTS, READONLY, DEBUGGING, OCTETS
 19 .comment      00000043  00000000  00000000  0006baa2  2**0
                  CONTENTS, READONLY
 20 .debug_frame  00000a3c  00000000  00000000  0006bae8  2**2
                  CONTENTS, READONLY, DEBUGGING, OCTETS
 21 .debug_line_str 00000078  00000000  00000000  0006c524  2**0
                  CONTENTS, READONLY, DEBUGGING, OCTETS

Disassembly of section .text:

080000bc <__do_global_dtors_aux>:
 80000bc:	b510      	push	{r4, lr}
 80000be:	4c06      	ldr	r4, [pc, #24]	@ (80000d8 <__do_global_dtors_aux+0x1c>)
 80000c0:	7823      	ldrb	r3, [r4, #0]
 80000c2:	2b00      	cmp	r3, #0
 80000c4:	d107      	bne.n	80000d6 <__do_global_dtors_aux+0x1a>
 80000c6:	4b05      	ldr	r3, [pc, #20]	@ (80000dc <__do_global_dtors_aux+0x20>)
 80000c8:	2b00      	cmp	r3, #0
 80000ca:	d002      	beq.n	80000d2 <__do_global_dtors_aux+0x16>
 80000cc:	4804      	ldr	r0, [pc, #16]	@ (80000e0 <__do_global_dtors_aux+0x24>)
 80000ce:	e000      	b.n	80000d2 <__do_global_dtors_aux+0x16>
 80000d0:	bf00      	nop
 80000d2:	2301      	movs	r3, #1
 80000d4:	7023      	strb	r3, [r4, #0]
 80000d6:	bd10      	pop	{r4, pc}
 80000d8:	2000005c 	.word	0x2000005c
 80000dc:	00000000 	.word	0x00000000
 80000e0:	08000fd4 	.word	0x08000fd4

080000e4 <frame_dummy>:
 80000e4:	4b04      	ldr	r3, [pc, #16]	@ (80000f8 <frame_dummy+0x14>)
 80000e6:	b510      	push	{r4, lr}
 80000e8:	2b00      	cmp	r3, #0
 80000ea:	d003      	beq.n	80000f4 <frame_dummy+0x10>
 80000ec:	4903      	ldr	r1, [pc, #12]	@ (80000fc <frame_dummy+0x18>)
 80000ee:	4804      	ldr	r0, [pc, #16]	@ (8000100 <frame_dummy+0x1c>)
 80000f0:	e000      	b.n	80000f4 <frame_dummy+0x10>
 80000f2:	bf00      	nop
 80000f4:	bd10      	pop	{r4, pc}
 80000f6:	46c0      	nop			@ (mov r8, r8)
 80000f8:	00000000 	.word	0x00000000
 80000fc:	20000060 	.word	0x20000060
 8000100:	08000fd4 	.word	0x08000fd4

08000104 <__udivsi3>:
 8000104:	2200      	movs	r2, #0
 8000106:	0843      	lsrs	r3, r0, #1
 8000108:	428b      	cmp	r3, r1
 800010a:	d374      	bcc.n	80001f6 <__udivsi3+0xf2>
 800010c:	0903      	lsrs	r3, r0, #4
 800010e:	428b      	cmp	r3, r1
 8000110:	d35f      	bcc.n	80001d2 <__udivsi3+0xce>
 8000112:	0a03      	lsrs	r3, r0, #8
 8000114:	428b      	cmp	r3, r1
 8000116:	d344      	bcc.n	80001a2 <__udivsi3+0x9e>
 8000118:	0b03      	lsrs	r3, r0, #12
 800011a:	428b      	cmp	r3, r1
 800011c:	d328      	bcc.n	8000170 <__udivsi3+0x6c>
 800011e:	0c03      	lsrs	r3, r0, #16
 8000120:	428b      	cmp	r3, r1
 8000122:	d30d      	bcc.n	8000140 <__udivsi3+0x3c>
 8000124:	22ff      	movs	r2, #255	@ 0xff
 8000126:	0209      	lsls	r1, r1, #8
 8000128:	ba12      	rev	r2, r2
 800012a:	0c03      	lsrs	r3, r0, #16
 800012c:	428b      	cmp	r3, r1
 800012e:	d302      	bcc.n	8000136 <__udivsi3+0x32>
 8000130:	1212      	asrs	r2, r2, #8
 8000132:	0209      	lsls	r1, r1, #8
 8000134:	d065      	beq.n	8000202 <__udivsi3+0xfe>
 8000136:	0b03      	lsrs	r3, r0, #12
 8000138:	428b      	cmp	r3, r1
 800013a:	d319      	bcc.n	8000170 <__udivsi3+0x6c>
 800013c:	e000      	b.n	8000140 <__udivsi3+0x3c>
 800013e:	0a09      	lsrs	r1, r1, #8
 8000140:	0bc3      	lsrs	r3, r0, #15
 8000142:	428b      	cmp	r3, r1
 8000144:	d301      	bcc.n	800014a <__udivsi3+0x46>
 8000146:	03cb      	lsls	r3, r1, #15
 8000148:	1ac0      	subs	r0, r0, r3
 800014a:	4152      	adcs	r2, r2
 800014c:	0b83      	lsrs	r3, r0, #14
 800014e:	428b      	cmp	r3, r1
 8000150:	d301      	bcc.n	8000156 <__udivsi3+0x52>
 8000152:	038b      	lsls	r3, r1, #14
 8000154:	1ac0      	subs	r0, r0, r3
 8000156:	4152      	adcs	r2, r2
 8000158:	0b43      	lsrs	r3, r0, #13
 800015a:	428b      	cmp	r3, r1
 800015c:	d301      	bcc.n	8000162 <__udivsi3+0x5e>
 800015e:	034b      	lsls	r3, r1, #13
 8000160:	1ac0      	subs	r0, r0, r3
 8000162:	4152      	adcs	r2, r2
 8000164:	0b03      	lsrs	r3, r0, #12
 8000166:	428b      	cmp	r3, r1
 8000168:	d301      	bcc.n	800016e <__udivsi3+0x6a>
 800016a:	030b      	lsls	r3, r1, #12
 800016c:	1ac0      	subs	r0, r0, r3
 800016e:	4152      	adcs	r2, r2
 8000170:	0ac3      	lsrs	r3, r0, #11
 8000172:	428b      	cmp	r3, r1
 8000174:	d301      	bcc.n	800017a <__udivsi3+0x76>
 8000176:	02cb      	lsls	r3, r1, #11
 8000178:	1ac0      	subs	r0, r0, r3
 800017a:	4152      	adcs	r2, r2
 800017c:	0a83      	lsrs	r3, r0, #10
 800017e:	428b      	cmp	r3, r1
 8000180:	d301      	bcc.n	8000186 <__udivsi3+0x82>
 8000182:	028b      	lsls	r3, r1, #10
 8000184:	1ac0      	subs	r0, r0, r3
 8000186:	4152      	adcs	r2, r2
 8000188:	0a43      	lsrs	r3, r0, #9
 800018a:	428b      	cmp	r3, r1
 800018c:	d301      	bcc.n	8000192 <__udivsi3+0x8e>
 800018e:	024b      	lsls	r3, r1, #9
 8000190:	1ac0      	subs	r0, r0, r3
 8000192:	4152      	adcs	r2, r2
 8000194:	0a03      	lsrs	r3, r0, #8
 8000196:	428b      	cmp	r3, r1
 8000198:	d301      	bcc.n	800019e <__udivsi3+0x9a>
 800019a:	020b      	lsls	r3, r1, #8
 800019c:	1ac0      	subs	r0, r0, r3
 800019e:	4152      	adcs	r2, r2
 80001a0:	d2cd      	bcs.n	800013e <__udivsi3+0x3a>
 80001a2:	09c3      	lsrs	r3, r0, #7
 80001a4:	428b      	cmp	r3, r1
 80001a6:	d301      	bcc.n	80001ac <__udivsi3+0xa8>
 80001a8:	01cb      	lsls	r3, r1, #7
 80001aa:	1ac0      	subs	r0, r0, r3
 80001ac:	4152      	adcs	r2, r2
 80001ae:	0983      	lsrs	r3, r0, #6
 80001b0:	428b      	cmp	r3, r1
 80001b2:	d301      	bcc.n	80001b8 <__udivsi3+0xb4>
 80001b4:	018b      	lsls	r3, r1, #6
 80001b6:	1ac0      	subs	r0, r0, r3
 80001b8:	4152      	adcs	r2, r2
 80001ba:	0943      	lsrs	r3, r0, #5
 80001bc:	428b      	cmp	r3, r1
 80001be:	d301      	bcc.n	80001c4 <__udivsi3+0xc0>
 80001c0:	014b      	lsls	r3, r1, #5
 80001c2:	1ac0      	subs	r0, r0, r3
 80001c4:	4152      	adcs	r2, r2
 80001c6:	0903      	lsrs	r3, r0, #4
 80001c8:	428b      	cmp	r3, r1
 80001ca:	d301      	bcc.n	80001d0 <__udivsi3+0xcc>
 80001cc:	010b      	lsls	r3, r1, #4
 80001ce:	1ac0      	subs	r0, r0, r3
 80001d0:	4152      	adcs	r2, r2
 80001d2:	08c3      	lsrs	r3, r0, #3
 80001d4:	428b      	cmp	r3, r1
 80001d6:	d301      	bcc.n	80001dc <__udivsi3+0xd8>
 80001d8:	00cb      	lsls	r3, r1, #3
 80001da:	1ac0      	subs	r0, r0, r3
 80001dc:	4152      	adcs	r2, r2
 80001de:	0883      	lsrs	r3, r0, #2
 80001e0:	428b      	cmp	r3, r1
 80001e2:	d301      	bcc.n	80001e8 <__udivsi3+0xe4>
 80001e4:	008b      	lsls	r3, r1, #2
 80001e6:	1ac0      	subs	r0, r0, r3
 80001e8:	4152      	adcs	r2, r2
 80001ea:	0843      	lsrs	r3, r0, #1
 80001ec:	428b      	cmp	r3, r1
 80001ee:	d301      	bcc.n	80001f4 <__udivsi3+0xf0>
 80001f0:	004b      	lsls	r3, r1, #1
 80001f2:	1ac0      	subs	r0, r0, r3
 80001f4:	4152      	adcs	r2, r2
 80001f6:	1a41      	subs	r1, r0, r1
 80001f8:	d200      	bcs.n	80001fc <__udivsi3+0xf8>
 80001fa:	4601      	mov	r1, r0
 80001fc:	4152      	adcs	r2, r2
 80001fe:	4610      	mov	r0, r2
 8000200:	4770      	bx	lr
 8000202:	e7ff      	b.n	8000204 <__udivsi3+0x100>
 8000204:	b501      	push	{r0, lr}
 8000206:	2000      	movs	r0, #0
 8000208:	f000 f806 	bl	8000218 <__aeabi_idiv0>
 800020c:	bd02      	pop	{r1, pc}
 800020e:	46c0      	nop			@ (mov r8, r8)

08000210 <__aeabi_uidivmod>:
 8000210:	2900      	cmp	r1, #0
 8000212:	d0f7      	beq.n	8000204 <__udivsi3+0x100>
 8000214:	e776      	b.n	8000104 <__udivsi3>
 8000216:	4770      	bx	lr

08000218 <__aeabi_idiv0>:
 8000218:	4770      	bx	lr
 800021a:	46c0      	nop			@ (mov r8, r8)

0800021c <i2c_init>:
/*
    PB8 --- SCL
    PB9 --- SDA
*/

void i2c_init(void) {
 800021c:	b580      	push	{r7, lr}
 800021e:	af00      	add	r7, sp, #0
    // enable clock access to GPIOB
    RCC->IOPENR |= (1<<1);    
 8000220:	4b3d      	ldr	r3, [pc, #244]	@ (8000318 <i2c_init+0xfc>)
 8000222:	6b5a      	ldr	r2, [r3, #52]	@ 0x34
 8000224:	4b3c      	ldr	r3, [pc, #240]	@ (8000318 <i2c_init+0xfc>)
 8000226:	2102      	movs	r1, #2
 8000228:	430a      	orrs	r2, r1
 800022a:	635a      	str	r2, [r3, #52]	@ 0x34
    
    // set alternate function mode for PB8 and PB9
    GPIOB->MODER |= (1<<17);    // set 1
 800022c:	4b3b      	ldr	r3, [pc, #236]	@ (800031c <i2c_init+0x100>)
 800022e:	681a      	ldr	r2, [r3, #0]
 8000230:	4b3a      	ldr	r3, [pc, #232]	@ (800031c <i2c_init+0x100>)
 8000232:	2180      	movs	r1, #128	@ 0x80
 8000234:	0289      	lsls	r1, r1, #10
 8000236:	430a      	orrs	r2, r1
 8000238:	601a      	str	r2, [r3, #0]
    GPIOB->MODER &= ~(1<<16);	// set 0
 800023a:	4b38      	ldr	r3, [pc, #224]	@ (800031c <i2c_init+0x100>)
 800023c:	681a      	ldr	r2, [r3, #0]
 800023e:	4b37      	ldr	r3, [pc, #220]	@ (800031c <i2c_init+0x100>)
 8000240:	4937      	ldr	r1, [pc, #220]	@ (8000320 <i2c_init+0x104>)
 8000242:	400a      	ands	r2, r1
 8000244:	601a      	str	r2, [r3, #0]

    GPIOB->MODER |= (1<<19);    // set 1
 8000246:	4b35      	ldr	r3, [pc, #212]	@ (800031c <i2c_init+0x100>)
 8000248:	681a      	ldr	r2, [r3, #0]
 800024a:	4b34      	ldr	r3, [pc, #208]	@ (800031c <i2c_init+0x100>)
 800024c:	2180      	movs	r1, #128	@ 0x80
 800024e:	0309      	lsls	r1, r1, #12
 8000250:	430a      	orrs	r2, r1
 8000252:	601a      	str	r2, [r3, #0]
    GPIOB->MODER &= ~(1<<18);   // set 0
 8000254:	4b31      	ldr	r3, [pc, #196]	@ (800031c <i2c_init+0x100>)
 8000256:	681a      	ldr	r2, [r3, #0]
 8000258:	4b30      	ldr	r3, [pc, #192]	@ (800031c <i2c_init+0x100>)
 800025a:	4932      	ldr	r1, [pc, #200]	@ (8000324 <i2c_init+0x108>)
 800025c:	400a      	ands	r2, r1
 800025e:	601a      	str	r2, [r3, #0]

    // set PB8 and PB9 output type to open drain
    GPIOB->OTYPER |= (1<<8);
 8000260:	4b2e      	ldr	r3, [pc, #184]	@ (800031c <i2c_init+0x100>)
 8000262:	685a      	ldr	r2, [r3, #4]
 8000264:	4b2d      	ldr	r3, [pc, #180]	@ (800031c <i2c_init+0x100>)
 8000266:	2180      	movs	r1, #128	@ 0x80
 8000268:	0049      	lsls	r1, r1, #1
 800026a:	430a      	orrs	r2, r1
 800026c:	605a      	str	r2, [r3, #4]
    GPIOB->OTYPER |= (1<<9);
 800026e:	4b2b      	ldr	r3, [pc, #172]	@ (800031c <i2c_init+0x100>)
 8000270:	685a      	ldr	r2, [r3, #4]
 8000272:	4b2a      	ldr	r3, [pc, #168]	@ (800031c <i2c_init+0x100>)
 8000274:	2180      	movs	r1, #128	@ 0x80
 8000276:	0089      	lsls	r1, r1, #2
 8000278:	430a      	orrs	r2, r1
 800027a:	605a      	str	r2, [r3, #4]

    // enable pull up for PB8 and PB9
    GPIOB->PUPDR &= ~(1<<19);
 800027c:	4b27      	ldr	r3, [pc, #156]	@ (800031c <i2c_init+0x100>)
 800027e:	68da      	ldr	r2, [r3, #12]
 8000280:	4b26      	ldr	r3, [pc, #152]	@ (800031c <i2c_init+0x100>)
 8000282:	4929      	ldr	r1, [pc, #164]	@ (8000328 <i2c_init+0x10c>)
 8000284:	400a      	ands	r2, r1
 8000286:	60da      	str	r2, [r3, #12]
    GPIOB->PUPDR |= (1<<18);
 8000288:	4b24      	ldr	r3, [pc, #144]	@ (800031c <i2c_init+0x100>)
 800028a:	68da      	ldr	r2, [r3, #12]
 800028c:	4b23      	ldr	r3, [pc, #140]	@ (800031c <i2c_init+0x100>)
 800028e:	2180      	movs	r1, #128	@ 0x80
 8000290:	02c9      	lsls	r1, r1, #11
 8000292:	430a      	orrs	r2, r1
 8000294:	60da      	str	r2, [r3, #12]

    GPIOB->PUPDR &= ~(1<<17);
 8000296:	4b21      	ldr	r3, [pc, #132]	@ (800031c <i2c_init+0x100>)
 8000298:	68da      	ldr	r2, [r3, #12]
 800029a:	4b20      	ldr	r3, [pc, #128]	@ (800031c <i2c_init+0x100>)
 800029c:	4923      	ldr	r1, [pc, #140]	@ (800032c <i2c_init+0x110>)
 800029e:	400a      	ands	r2, r1
 80002a0:	60da      	str	r2, [r3, #12]
    GPIOB->PUPDR |= (1<<16);
 80002a2:	4b1e      	ldr	r3, [pc, #120]	@ (800031c <i2c_init+0x100>)
 80002a4:	68da      	ldr	r2, [r3, #12]
 80002a6:	4b1d      	ldr	r3, [pc, #116]	@ (800031c <i2c_init+0x100>)
 80002a8:	2180      	movs	r1, #128	@ 0x80
 80002aa:	0249      	lsls	r1, r1, #9
 80002ac:	430a      	orrs	r2, r1
 80002ae:	60da      	str	r2, [r3, #12]

    // set PB8 and PB9 alternate function to I2C - AF6
    // pin 9[3:0] - 7 6 5 4 - 0 1 1 0
    GPIOB->AFR[1] &= ~(1<<7);
 80002b0:	4b1a      	ldr	r3, [pc, #104]	@ (800031c <i2c_init+0x100>)
 80002b2:	6a5a      	ldr	r2, [r3, #36]	@ 0x24
 80002b4:	4b19      	ldr	r3, [pc, #100]	@ (800031c <i2c_init+0x100>)
 80002b6:	2180      	movs	r1, #128	@ 0x80
 80002b8:	438a      	bics	r2, r1
 80002ba:	625a      	str	r2, [r3, #36]	@ 0x24
    GPIOB->AFR[1] |= (1<<6);
 80002bc:	4b17      	ldr	r3, [pc, #92]	@ (800031c <i2c_init+0x100>)
 80002be:	6a5a      	ldr	r2, [r3, #36]	@ 0x24
 80002c0:	4b16      	ldr	r3, [pc, #88]	@ (800031c <i2c_init+0x100>)
 80002c2:	2140      	movs	r1, #64	@ 0x40
 80002c4:	430a      	orrs	r2, r1
 80002c6:	625a      	str	r2, [r3, #36]	@ 0x24
    GPIOB->AFR[1] |= (1<<5);
 80002c8:	4b14      	ldr	r3, [pc, #80]	@ (800031c <i2c_init+0x100>)
 80002ca:	6a5a      	ldr	r2, [r3, #36]	@ 0x24
 80002cc:	4b13      	ldr	r3, [pc, #76]	@ (800031c <i2c_init+0x100>)
 80002ce:	2120      	movs	r1, #32
 80002d0:	430a      	orrs	r2, r1
 80002d2:	625a      	str	r2, [r3, #36]	@ 0x24
    GPIOB->AFR[1] &= ~(1<<4);
 80002d4:	4b11      	ldr	r3, [pc, #68]	@ (800031c <i2c_init+0x100>)
 80002d6:	6a5a      	ldr	r2, [r3, #36]	@ 0x24
 80002d8:	4b10      	ldr	r3, [pc, #64]	@ (800031c <i2c_init+0x100>)
 80002da:	2110      	movs	r1, #16
 80002dc:	438a      	bics	r2, r1
 80002de:	625a      	str	r2, [r3, #36]	@ 0x24

    // pin 8[3:0] - 3 2 1 0 - 0 1 1 0
    GPIOB->AFR[1] &= ~(1<<3);
 80002e0:	4b0e      	ldr	r3, [pc, #56]	@ (800031c <i2c_init+0x100>)
 80002e2:	6a5a      	ldr	r2, [r3, #36]	@ 0x24
 80002e4:	4b0d      	ldr	r3, [pc, #52]	@ (800031c <i2c_init+0x100>)
 80002e6:	2108      	movs	r1, #8
 80002e8:	438a      	bics	r2, r1
 80002ea:	625a      	str	r2, [r3, #36]	@ 0x24
    GPIOB->AFR[1] |= (1<<2);
 80002ec:	4b0b      	ldr	r3, [pc, #44]	@ (800031c <i2c_init+0x100>)
 80002ee:	6a5a      	ldr	r2, [r3, #36]	@ 0x24
 80002f0:	4b0a      	ldr	r3, [pc, #40]	@ (800031c <i2c_init+0x100>)
 80002f2:	2104      	movs	r1, #4
 80002f4:	430a      	orrs	r2, r1
 80002f6:	625a      	str	r2, [r3, #36]	@ 0x24
    GPIOB->AFR[1] |= (1<<1);
 80002f8:	4b08      	ldr	r3, [pc, #32]	@ (800031c <i2c_init+0x100>)
 80002fa:	6a5a      	ldr	r2, [r3, #36]	@ 0x24
 80002fc:	4b07      	ldr	r3, [pc, #28]	@ (800031c <i2c_init+0x100>)
 80002fe:	2102      	movs	r1, #2
 8000300:	430a      	orrs	r2, r1
 8000302:	625a      	str	r2, [r3, #36]	@ 0x24
    GPIOB->AFR[1] &= ~(1<<0);
 8000304:	4b05      	ldr	r3, [pc, #20]	@ (800031c <i2c_init+0x100>)
 8000306:	6a5a      	ldr	r2, [r3, #36]	@ 0x24
 8000308:	4b04      	ldr	r3, [pc, #16]	@ (800031c <i2c_init+0x100>)
 800030a:	2101      	movs	r1, #1
 800030c:	438a      	bics	r2, r1
 800030e:	625a      	str	r2, [r3, #36]	@ 0x24
    // set I2C rise time


    // enable I2C1 module

}
 8000310:	46c0      	nop			@ (mov r8, r8)
 8000312:	46bd      	mov	sp, r7
 8000314:	bd80      	pop	{r7, pc}
 8000316:	46c0      	nop			@ (mov r8, r8)
 8000318:	40021000 	.word	0x40021000
 800031c:	50000400 	.word	0x50000400
 8000320:	fffeffff 	.word	0xfffeffff
 8000324:	fffbffff 	.word	0xfffbffff
 8000328:	fff7ffff 	.word	0xfff7ffff
 800032c:	fffdffff 	.word	0xfffdffff

08000330 <main>:
// Microcontroller: STM32G071R
#include <stdio.h>
#include "uart.h"

int main(void) {
 8000330:	b580      	push	{r7, lr}
 8000332:	af00      	add	r7, sp, #0
	// initalise debug uart
	uart_init();
 8000334:	f000 f8b4 	bl	80004a0 <uart_init>

	// initialise i2c
	i2c_init();
 8000338:	f7ff ff70 	bl	800021c <i2c_init>
	
	// program loop
	while(1) {
		printf("atlas is best meow...\r\n");
 800033c:	4b02      	ldr	r3, [pc, #8]	@ (8000348 <main+0x18>)
 800033e:	0018      	movs	r0, r3
 8000340:	f000 fa7e 	bl	8000840 <puts>
 8000344:	e7fa      	b.n	800033c <main+0xc>
 8000346:	46c0      	nop			@ (mov r8, r8)
 8000348:	08000fec 	.word	0x08000fec

0800034c <_read>:
  _kill(status, -1);
  while (1) {}    /* Make sure we hang here */
}

__attribute__((weak)) int _read(int file, char *ptr, int len)
{
 800034c:	b580      	push	{r7, lr}
 800034e:	b086      	sub	sp, #24
 8000350:	af00      	add	r7, sp, #0
 8000352:	60f8      	str	r0, [r7, #12]
 8000354:	60b9      	str	r1, [r7, #8]
 8000356:	607a      	str	r2, [r7, #4]
  (void)file;
  int DataIdx;

  for (DataIdx = 0; DataIdx < len; DataIdx++)
 8000358:	2300      	movs	r3, #0
 800035a:	617b      	str	r3, [r7, #20]
 800035c:	e00a      	b.n	8000374 <_read+0x28>
  {
    *ptr++ = __io_getchar();
 800035e:	e000      	b.n	8000362 <_read+0x16>
 8000360:	bf00      	nop
 8000362:	0001      	movs	r1, r0
 8000364:	68bb      	ldr	r3, [r7, #8]
 8000366:	1c5a      	adds	r2, r3, #1
 8000368:	60ba      	str	r2, [r7, #8]
 800036a:	b2ca      	uxtb	r2, r1
 800036c:	701a      	strb	r2, [r3, #0]
  for (DataIdx = 0; DataIdx < len; DataIdx++)
 800036e:	697b      	ldr	r3, [r7, #20]
 8000370:	3301      	adds	r3, #1
 8000372:	617b      	str	r3, [r7, #20]
 8000374:	697a      	ldr	r2, [r7, #20]
 8000376:	687b      	ldr	r3, [r7, #4]
 8000378:	429a      	cmp	r2, r3
 800037a:	dbf0      	blt.n	800035e <_read+0x12>
  }

  return len;
 800037c:	687b      	ldr	r3, [r7, #4]
}
 800037e:	0018      	movs	r0, r3
 8000380:	46bd      	mov	sp, r7
 8000382:	b006      	add	sp, #24
 8000384:	bd80      	pop	{r7, pc}

08000386 <_write>:

__attribute__((weak)) int _write(int file, char *ptr, int len)
{
 8000386:	b580      	push	{r7, lr}
 8000388:	b086      	sub	sp, #24
 800038a:	af00      	add	r7, sp, #0
 800038c:	60f8      	str	r0, [r7, #12]
 800038e:	60b9      	str	r1, [r7, #8]
 8000390:	607a      	str	r2, [r7, #4]
  (void)file;
  int DataIdx;

  for (DataIdx = 0; DataIdx < len; DataIdx++)
 8000392:	2300      	movs	r3, #0
 8000394:	617b      	str	r3, [r7, #20]
 8000396:	e009      	b.n	80003ac <_write+0x26>
  {
    __io_putchar(*ptr++);
 8000398:	68bb      	ldr	r3, [r7, #8]
 800039a:	1c5a      	adds	r2, r3, #1
 800039c:	60ba      	str	r2, [r7, #8]
 800039e:	781b      	ldrb	r3, [r3, #0]
 80003a0:	0018      	movs	r0, r3
 80003a2:	f000 f86f 	bl	8000484 <__io_putchar>
  for (DataIdx = 0; DataIdx < len; DataIdx++)
 80003a6:	697b      	ldr	r3, [r7, #20]
 80003a8:	3301      	adds	r3, #1
 80003aa:	617b      	str	r3, [r7, #20]
 80003ac:	697a      	ldr	r2, [r7, #20]
 80003ae:	687b      	ldr	r3, [r7, #4]
 80003b0:	429a      	cmp	r2, r3
 80003b2:	dbf1      	blt.n	8000398 <_write+0x12>
  }
  return len;
 80003b4:	687b      	ldr	r3, [r7, #4]
}
 80003b6:	0018      	movs	r0, r3
 80003b8:	46bd      	mov	sp, r7
 80003ba:	b006      	add	sp, #24
 80003bc:	bd80      	pop	{r7, pc}

080003be <_close>:

int _close(int file)
{
 80003be:	b580      	push	{r7, lr}
 80003c0:	b082      	sub	sp, #8
 80003c2:	af00      	add	r7, sp, #0
 80003c4:	6078      	str	r0, [r7, #4]
  (void)file;
  return -1;
 80003c6:	2301      	movs	r3, #1
 80003c8:	425b      	negs	r3, r3
}
 80003ca:	0018      	movs	r0, r3
 80003cc:	46bd      	mov	sp, r7
 80003ce:	b002      	add	sp, #8
 80003d0:	bd80      	pop	{r7, pc}

080003d2 <_fstat>:


int _fstat(int file, struct stat *st)
{
 80003d2:	b580      	push	{r7, lr}
 80003d4:	b082      	sub	sp, #8
 80003d6:	af00      	add	r7, sp, #0
 80003d8:	6078      	str	r0, [r7, #4]
 80003da:	6039      	str	r1, [r7, #0]
  (void)file;
  st->st_mode = S_IFCHR;
 80003dc:	683b      	ldr	r3, [r7, #0]
 80003de:	2280      	movs	r2, #128	@ 0x80
 80003e0:	0192      	lsls	r2, r2, #6
 80003e2:	605a      	str	r2, [r3, #4]
  return 0;
 80003e4:	2300      	movs	r3, #0
}
 80003e6:	0018      	movs	r0, r3
 80003e8:	46bd      	mov	sp, r7
 80003ea:	b002      	add	sp, #8
 80003ec:	bd80      	pop	{r7, pc}

080003ee <_isatty>:

int _isatty(int file)
{
 80003ee:	b580      	push	{r7, lr}
 80003f0:	b082      	sub	sp, #8
 80003f2:	af00      	add	r7, sp, #0
 80003f4:	6078      	str	r0, [r7, #4]
  (void)file;
  return 1;
 80003f6:	2301      	movs	r3, #1
}
 80003f8:	0018      	movs	r0, r3
 80003fa:	46bd      	mov	sp, r7
 80003fc:	b002      	add	sp, #8
 80003fe:	bd80      	pop	{r7, pc}

08000400 <_lseek>:

int _lseek(int file, int ptr, int dir)
{
 8000400:	b580      	push	{r7, lr}
 8000402:	b084      	sub	sp, #16
 8000404:	af00      	add	r7, sp, #0
 8000406:	60f8      	str	r0, [r7, #12]
 8000408:	60b9      	str	r1, [r7, #8]
 800040a:	607a      	str	r2, [r7, #4]
  (void)file;
  (void)ptr;
  (void)dir;
  return 0;
 800040c:	2300      	movs	r3, #0
}
 800040e:	0018      	movs	r0, r3
 8000410:	46bd      	mov	sp, r7
 8000412:	b004      	add	sp, #16
 8000414:	bd80      	pop	{r7, pc}
	...

08000418 <_sbrk>:
 *
 * @param incr Memory size
 * @return Pointer to allocated memory
 */
void *_sbrk(ptrdiff_t incr)
{
 8000418:	b580      	push	{r7, lr}
 800041a:	b086      	sub	sp, #24
 800041c:	af00      	add	r7, sp, #0
 800041e:	6078      	str	r0, [r7, #4]
  extern uint8_t _end; /* Symbol defined in the linker script */
  extern uint8_t _estack; /* Symbol defined in the linker script */
  extern uint32_t _Min_Stack_Size; /* Symbol defined in the linker script */
  const uint32_t stack_limit = (uint32_t)&_estack - (uint32_t)&_Min_Stack_Size;
 8000420:	4a14      	ldr	r2, [pc, #80]	@ (8000474 <_sbrk+0x5c>)
 8000422:	4b15      	ldr	r3, [pc, #84]	@ (8000478 <_sbrk+0x60>)
 8000424:	1ad3      	subs	r3, r2, r3
 8000426:	617b      	str	r3, [r7, #20]
  const uint8_t *max_heap = (uint8_t *)stack_limit;
 8000428:	697b      	ldr	r3, [r7, #20]
 800042a:	613b      	str	r3, [r7, #16]
  uint8_t *prev_heap_end;

  /* Initialize heap end at first call */
  if (NULL == __sbrk_heap_end)
 800042c:	4b13      	ldr	r3, [pc, #76]	@ (800047c <_sbrk+0x64>)
 800042e:	681b      	ldr	r3, [r3, #0]
 8000430:	2b00      	cmp	r3, #0
 8000432:	d102      	bne.n	800043a <_sbrk+0x22>
  {
    __sbrk_heap_end = &_end;
 8000434:	4b11      	ldr	r3, [pc, #68]	@ (800047c <_sbrk+0x64>)
 8000436:	4a12      	ldr	r2, [pc, #72]	@ (8000480 <_sbrk+0x68>)
 8000438:	601a      	str	r2, [r3, #0]
  }

  /* Protect heap from growing into the reserved MSP stack */
  if (__sbrk_heap_end + incr > max_heap)
 800043a:	4b10      	ldr	r3, [pc, #64]	@ (800047c <_sbrk+0x64>)
 800043c:	681a      	ldr	r2, [r3, #0]
 800043e:	687b      	ldr	r3, [r7, #4]
 8000440:	18d3      	adds	r3, r2, r3
 8000442:	693a      	ldr	r2, [r7, #16]
 8000444:	429a      	cmp	r2, r3
 8000446:	d207      	bcs.n	8000458 <_sbrk+0x40>
  {
    errno = ENOMEM;
 8000448:	f000 fb46 	bl	8000ad8 <__errno>
 800044c:	0003      	movs	r3, r0
 800044e:	220c      	movs	r2, #12
 8000450:	601a      	str	r2, [r3, #0]
    return (void *)-1;
 8000452:	2301      	movs	r3, #1
 8000454:	425b      	negs	r3, r3
 8000456:	e009      	b.n	800046c <_sbrk+0x54>
  }

  prev_heap_end = __sbrk_heap_end;
 8000458:	4b08      	ldr	r3, [pc, #32]	@ (800047c <_sbrk+0x64>)
 800045a:	681b      	ldr	r3, [r3, #0]
 800045c:	60fb      	str	r3, [r7, #12]
  __sbrk_heap_end += incr;
 800045e:	4b07      	ldr	r3, [pc, #28]	@ (800047c <_sbrk+0x64>)
 8000460:	681a      	ldr	r2, [r3, #0]
 8000462:	687b      	ldr	r3, [r7, #4]
 8000464:	18d2      	adds	r2, r2, r3
 8000466:	4b05      	ldr	r3, [pc, #20]	@ (800047c <_sbrk+0x64>)
 8000468:	601a      	str	r2, [r3, #0]

  return (void *)prev_heap_end;
 800046a:	68fb      	ldr	r3, [r7, #12]
}
 800046c:	0018      	movs	r0, r3
 800046e:	46bd      	mov	sp, r7
 8000470:	b006      	add	sp, #24
 8000472:	bd80      	pop	{r7, pc}
 8000474:	20009000 	.word	0x20009000
 8000478:	00000400 	.word	0x00000400
 800047c:	20000078 	.word	0x20000078
 8000480:	200001c8 	.word	0x200001c8

08000484 <__io_putchar>:
#define SR_TXE              (1U<<7)

static void uart_set_baudrate(uint32_t periph_clk, uint32_t baudrate);
static void uart_write(int ch);

int __io_putchar(int ch) {
 8000484:	b580      	push	{r7, lr}
 8000486:	b082      	sub	sp, #8
 8000488:	af00      	add	r7, sp, #0
 800048a:	6078      	str	r0, [r7, #4]
    uart_write(ch);
 800048c:	687b      	ldr	r3, [r7, #4]
 800048e:	0018      	movs	r0, r3
 8000490:	f000 f852 	bl	8000538 <uart_write>
    return ch;
 8000494:	687b      	ldr	r3, [r7, #4]
}
 8000496:	0018      	movs	r0, r3
 8000498:	46bd      	mov	sp, r7
 800049a:	b002      	add	sp, #8
 800049c:	bd80      	pop	{r7, pc}
	...

080004a0 <uart_init>:

void uart_init(void) {
 80004a0:	b580      	push	{r7, lr}
 80004a2:	af00      	add	r7, sp, #0
    // enable clock access to GPIOA
    RCC->IOPENR |= GPIOAEN;
 80004a4:	4b20      	ldr	r3, [pc, #128]	@ (8000528 <uart_init+0x88>)
 80004a6:	6b5a      	ldr	r2, [r3, #52]	@ 0x34
 80004a8:	4b1f      	ldr	r3, [pc, #124]	@ (8000528 <uart_init+0x88>)
 80004aa:	2101      	movs	r1, #1
 80004ac:	430a      	orrs	r2, r1
 80004ae:	635a      	str	r2, [r3, #52]	@ 0x34

    // set PA2 to alternate function mode
    GPIOA->MODER &= ~(3U << 4);  // clear both bits
 80004b0:	23a0      	movs	r3, #160	@ 0xa0
 80004b2:	05db      	lsls	r3, r3, #23
 80004b4:	681a      	ldr	r2, [r3, #0]
 80004b6:	23a0      	movs	r3, #160	@ 0xa0
 80004b8:	05db      	lsls	r3, r3, #23
 80004ba:	2130      	movs	r1, #48	@ 0x30
 80004bc:	438a      	bics	r2, r1
 80004be:	601a      	str	r2, [r3, #0]
    GPIOA->MODER |=  (2U << 4);  // set to 10 (AF mode)
 80004c0:	23a0      	movs	r3, #160	@ 0xa0
 80004c2:	05db      	lsls	r3, r3, #23
 80004c4:	681a      	ldr	r2, [r3, #0]
 80004c6:	23a0      	movs	r3, #160	@ 0xa0
 80004c8:	05db      	lsls	r3, r3, #23
 80004ca:	2120      	movs	r1, #32
 80004cc:	430a      	orrs	r2, r1
 80004ce:	601a      	str	r2, [r3, #0]

    // clear all 4 bits for PA2 first, then set AF1
    GPIOA->AFR[0] &= ~(0xF << 8);  // clear bits 11:8
 80004d0:	23a0      	movs	r3, #160	@ 0xa0
 80004d2:	05db      	lsls	r3, r3, #23
 80004d4:	6a1a      	ldr	r2, [r3, #32]
 80004d6:	23a0      	movs	r3, #160	@ 0xa0
 80004d8:	05db      	lsls	r3, r3, #23
 80004da:	4914      	ldr	r1, [pc, #80]	@ (800052c <uart_init+0x8c>)
 80004dc:	400a      	ands	r2, r1
 80004de:	621a      	str	r2, [r3, #32]
    GPIOA->AFR[0] |=  (0x1 << 8);  // set AF1
 80004e0:	23a0      	movs	r3, #160	@ 0xa0
 80004e2:	05db      	lsls	r3, r3, #23
 80004e4:	6a1a      	ldr	r2, [r3, #32]
 80004e6:	23a0      	movs	r3, #160	@ 0xa0
 80004e8:	05db      	lsls	r3, r3, #23
 80004ea:	2180      	movs	r1, #128	@ 0x80
 80004ec:	0049      	lsls	r1, r1, #1
 80004ee:	430a      	orrs	r2, r1
 80004f0:	621a      	str	r2, [r3, #32]

    // enable clock access to UART2
    RCC->APBENR1 |= UART2EN;
 80004f2:	4b0d      	ldr	r3, [pc, #52]	@ (8000528 <uart_init+0x88>)
 80004f4:	6bda      	ldr	r2, [r3, #60]	@ 0x3c
 80004f6:	4b0c      	ldr	r3, [pc, #48]	@ (8000528 <uart_init+0x88>)
 80004f8:	2180      	movs	r1, #128	@ 0x80
 80004fa:	0289      	lsls	r1, r1, #10
 80004fc:	430a      	orrs	r2, r1
 80004fe:	63da      	str	r2, [r3, #60]	@ 0x3c

    // configure uart baudrate
    uart_set_baudrate(APB1_CLK, DEBUG_UART_BAUDRATE);
 8000500:	23e1      	movs	r3, #225	@ 0xe1
 8000502:	025b      	lsls	r3, r3, #9
 8000504:	4a0a      	ldr	r2, [pc, #40]	@ (8000530 <uart_init+0x90>)
 8000506:	0019      	movs	r1, r3
 8000508:	0010      	movs	r0, r2
 800050a:	f000 f83f 	bl	800058c <uart_set_baudrate>

    // configure transfer direction
    USART2->CR1 = CR1_TE;
 800050e:	4b09      	ldr	r3, [pc, #36]	@ (8000534 <uart_init+0x94>)
 8000510:	2208      	movs	r2, #8
 8000512:	601a      	str	r2, [r3, #0]

    // enable uart module
    USART2->CR1 |= CR1_UE;
 8000514:	4b07      	ldr	r3, [pc, #28]	@ (8000534 <uart_init+0x94>)
 8000516:	681a      	ldr	r2, [r3, #0]
 8000518:	4b06      	ldr	r3, [pc, #24]	@ (8000534 <uart_init+0x94>)
 800051a:	2101      	movs	r1, #1
 800051c:	430a      	orrs	r2, r1
 800051e:	601a      	str	r2, [r3, #0]
}
 8000520:	46c0      	nop			@ (mov r8, r8)
 8000522:	46bd      	mov	sp, r7
 8000524:	bd80      	pop	{r7, pc}
 8000526:	46c0      	nop			@ (mov r8, r8)
 8000528:	40021000 	.word	0x40021000
 800052c:	fffff0ff 	.word	0xfffff0ff
 8000530:	00f42400 	.word	0x00f42400
 8000534:	40004400 	.word	0x40004400

08000538 <uart_write>:

static void uart_write(int ch) {
 8000538:	b580      	push	{r7, lr}
 800053a:	b082      	sub	sp, #8
 800053c:	af00      	add	r7, sp, #0
 800053e:	6078      	str	r0, [r7, #4]
    // make sure transmit data register is empty
    while (!(USART2->ISR & SR_TXE)) {}
 8000540:	46c0      	nop			@ (mov r8, r8)
 8000542:	4b07      	ldr	r3, [pc, #28]	@ (8000560 <uart_write+0x28>)
 8000544:	69db      	ldr	r3, [r3, #28]
 8000546:	2280      	movs	r2, #128	@ 0x80
 8000548:	4013      	ands	r3, r2
 800054a:	d0fa      	beq.n	8000542 <uart_write+0xa>

    // write to transmit data register
    USART2->TDR = (ch & 0xFF);
 800054c:	687a      	ldr	r2, [r7, #4]
 800054e:	4b04      	ldr	r3, [pc, #16]	@ (8000560 <uart_write+0x28>)
 8000550:	21ff      	movs	r1, #255	@ 0xff
 8000552:	400a      	ands	r2, r1
 8000554:	629a      	str	r2, [r3, #40]	@ 0x28
}
 8000556:	46c0      	nop			@ (mov r8, r8)
 8000558:	46bd      	mov	sp, r7
 800055a:	b002      	add	sp, #8
 800055c:	bd80      	pop	{r7, pc}
 800055e:	46c0      	nop			@ (mov r8, r8)
 8000560:	40004400 	.word	0x40004400

08000564 <compute_uart_bd>:

static uint16_t compute_uart_bd(uint32_t periph_clk, uint32_t baudrate) {
 8000564:	b580      	push	{r7, lr}
 8000566:	b082      	sub	sp, #8
 8000568:	af00      	add	r7, sp, #0
 800056a:	6078      	str	r0, [r7, #4]
 800056c:	6039      	str	r1, [r7, #0]
    return( (periph_clk + (baudrate/2U)) / baudrate);
 800056e:	683b      	ldr	r3, [r7, #0]
 8000570:	085a      	lsrs	r2, r3, #1
 8000572:	687b      	ldr	r3, [r7, #4]
 8000574:	18d3      	adds	r3, r2, r3
 8000576:	6839      	ldr	r1, [r7, #0]
 8000578:	0018      	movs	r0, r3
 800057a:	f7ff fdc3 	bl	8000104 <__udivsi3>
 800057e:	0003      	movs	r3, r0
 8000580:	b29b      	uxth	r3, r3
}
 8000582:	0018      	movs	r0, r3
 8000584:	46bd      	mov	sp, r7
 8000586:	b002      	add	sp, #8
 8000588:	bd80      	pop	{r7, pc}
	...

0800058c <uart_set_baudrate>:

static void uart_set_baudrate(uint32_t periph_clk, uint32_t baudrate) {
 800058c:	b580      	push	{r7, lr}
 800058e:	b082      	sub	sp, #8
 8000590:	af00      	add	r7, sp, #0
 8000592:	6078      	str	r0, [r7, #4]
 8000594:	6039      	str	r1, [r7, #0]
    USART2->BRR = compute_uart_bd(periph_clk, baudrate);
 8000596:	683a      	ldr	r2, [r7, #0]
 8000598:	687b      	ldr	r3, [r7, #4]
 800059a:	0011      	movs	r1, r2
 800059c:	0018      	movs	r0, r3
 800059e:	f7ff ffe1 	bl	8000564 <compute_uart_bd>
 80005a2:	0003      	movs	r3, r0
 80005a4:	001a      	movs	r2, r3
 80005a6:	4b03      	ldr	r3, [pc, #12]	@ (80005b4 <uart_set_baudrate+0x28>)
 80005a8:	60da      	str	r2, [r3, #12]
}
 80005aa:	46c0      	nop			@ (mov r8, r8)
 80005ac:	46bd      	mov	sp, r7
 80005ae:	b002      	add	sp, #8
 80005b0:	bd80      	pop	{r7, pc}
 80005b2:	46c0      	nop			@ (mov r8, r8)
 80005b4:	40004400 	.word	0x40004400

080005b8 <Reset_Handler>:

  .section .text.Reset_Handler
  .weak Reset_Handler
  .type Reset_Handler, %function
Reset_Handler:
  ldr   r0, =_estack
 80005b8:	480d      	ldr	r0, [pc, #52]	@ (80005f0 <LoopForever+0x2>)
  mov   sp, r0          /* set stack pointer */
 80005ba:	4685      	mov	sp, r0
/* Call the clock system initialization function.*/
  bl  SystemInit
 80005bc:	e000      	b.n	80005c0 <Reset_Handler+0x8>
 80005be:	bf00      	nop

/* Copy the data segment initializers from flash to SRAM */
  ldr r0, =_sdata
 80005c0:	480c      	ldr	r0, [pc, #48]	@ (80005f4 <LoopForever+0x6>)
  ldr r1, =_edata
 80005c2:	490d      	ldr	r1, [pc, #52]	@ (80005f8 <LoopForever+0xa>)
  ldr r2, =_sidata
 80005c4:	4a0d      	ldr	r2, [pc, #52]	@ (80005fc <LoopForever+0xe>)
  movs r3, #0
 80005c6:	2300      	movs	r3, #0
  b LoopCopyDataInit
 80005c8:	e002      	b.n	80005d0 <LoopCopyDataInit>

080005ca <CopyDataInit>:

CopyDataInit:
  ldr r4, [r2, r3]
 80005ca:	58d4      	ldr	r4, [r2, r3]
  str r4, [r0, r3]
 80005cc:	50c4      	str	r4, [r0, r3]
  adds r3, r3, #4
 80005ce:	3304      	adds	r3, #4

080005d0 <LoopCopyDataInit>:

LoopCopyDataInit:
  adds r4, r0, r3
 80005d0:	18c4      	adds	r4, r0, r3
  cmp r4, r1
 80005d2:	428c      	cmp	r4, r1
  bcc CopyDataInit
 80005d4:	d3f9      	bcc.n	80005ca <CopyDataInit>

/* Zero fill the bss segment. */
  ldr r2, =_sbss
 80005d6:	4a0a      	ldr	r2, [pc, #40]	@ (8000600 <LoopForever+0x12>)
  ldr r4, =_ebss
 80005d8:	4c0a      	ldr	r4, [pc, #40]	@ (8000604 <LoopForever+0x16>)
  movs r3, #0
 80005da:	2300      	movs	r3, #0
  b LoopFillZerobss
 80005dc:	e001      	b.n	80005e2 <LoopFillZerobss>

080005de <FillZerobss>:

FillZerobss:
  str  r3, [r2]
 80005de:	6013      	str	r3, [r2, #0]
  adds r2, r2, #4
 80005e0:	3204      	adds	r2, #4

080005e2 <LoopFillZerobss>:

LoopFillZerobss:
  cmp r2, r4
 80005e2:	42a2      	cmp	r2, r4
  bcc FillZerobss
 80005e4:	d3fb      	bcc.n	80005de <FillZerobss>


/* Call static constructors */
  bl __libc_init_array
 80005e6:	f000 fa7d 	bl	8000ae4 <__libc_init_array>
/* Call the application's entry point.*/

  bl main
 80005ea:	f7ff fea1 	bl	8000330 <main>

080005ee <LoopForever>:

LoopForever:
  b LoopForever
 80005ee:	e7fe      	b.n	80005ee <LoopForever>
  ldr   r0, =_estack
 80005f0:	20009000 	.word	0x20009000
  ldr r0, =_sdata
 80005f4:	20000000 	.word	0x20000000
  ldr r1, =_edata
 80005f8:	2000005c 	.word	0x2000005c
  ldr r2, =_sidata
 80005fc:	0800100c 	.word	0x0800100c
  ldr r2, =_sbss
 8000600:	2000005c 	.word	0x2000005c
  ldr r4, =_ebss
 8000604:	200001c8 	.word	0x200001c8

08000608 <ADC_COMP_IRQHandler>:
 * @retval : None
*/
  .section .text.Default_Handler,"ax",%progbits
Default_Handler:
Infinite_Loop:
  b Infinite_Loop
 8000608:	e7fe      	b.n	8000608 <ADC_COMP_IRQHandler>
	...

0800060c <std>:
 800060c:	2300      	movs	r3, #0
 800060e:	b510      	push	{r4, lr}
 8000610:	0004      	movs	r4, r0
 8000612:	6003      	str	r3, [r0, #0]
 8000614:	6043      	str	r3, [r0, #4]
 8000616:	6083      	str	r3, [r0, #8]
 8000618:	8181      	strh	r1, [r0, #12]
 800061a:	6643      	str	r3, [r0, #100]	@ 0x64
 800061c:	81c2      	strh	r2, [r0, #14]
 800061e:	6103      	str	r3, [r0, #16]
 8000620:	6143      	str	r3, [r0, #20]
 8000622:	6183      	str	r3, [r0, #24]
 8000624:	0019      	movs	r1, r3
 8000626:	2208      	movs	r2, #8
 8000628:	305c      	adds	r0, #92	@ 0x5c
 800062a:	f000 f9ff 	bl	8000a2c <memset>
 800062e:	4b0b      	ldr	r3, [pc, #44]	@ (800065c <std+0x50>)
 8000630:	6224      	str	r4, [r4, #32]
 8000632:	6263      	str	r3, [r4, #36]	@ 0x24
 8000634:	4b0a      	ldr	r3, [pc, #40]	@ (8000660 <std+0x54>)
 8000636:	62a3      	str	r3, [r4, #40]	@ 0x28
 8000638:	4b0a      	ldr	r3, [pc, #40]	@ (8000664 <std+0x58>)
 800063a:	62e3      	str	r3, [r4, #44]	@ 0x2c
 800063c:	4b0a      	ldr	r3, [pc, #40]	@ (8000668 <std+0x5c>)
 800063e:	6323      	str	r3, [r4, #48]	@ 0x30
 8000640:	4b0a      	ldr	r3, [pc, #40]	@ (800066c <std+0x60>)
 8000642:	429c      	cmp	r4, r3
 8000644:	d005      	beq.n	8000652 <std+0x46>
 8000646:	4b0a      	ldr	r3, [pc, #40]	@ (8000670 <std+0x64>)
 8000648:	429c      	cmp	r4, r3
 800064a:	d002      	beq.n	8000652 <std+0x46>
 800064c:	4b09      	ldr	r3, [pc, #36]	@ (8000674 <std+0x68>)
 800064e:	429c      	cmp	r4, r3
 8000650:	d103      	bne.n	800065a <std+0x4e>
 8000652:	0020      	movs	r0, r4
 8000654:	3058      	adds	r0, #88	@ 0x58
 8000656:	f000 fa69 	bl	8000b2c <__retarget_lock_init_recursive>
 800065a:	bd10      	pop	{r4, pc}
 800065c:	08000855 	.word	0x08000855
 8000660:	0800087d 	.word	0x0800087d
 8000664:	080008b5 	.word	0x080008b5
 8000668:	080008e1 	.word	0x080008e1
 800066c:	2000007c 	.word	0x2000007c
 8000670:	200000e4 	.word	0x200000e4
 8000674:	2000014c 	.word	0x2000014c

08000678 <stdio_exit_handler>:
 8000678:	b510      	push	{r4, lr}
 800067a:	4a03      	ldr	r2, [pc, #12]	@ (8000688 <stdio_exit_handler+0x10>)
 800067c:	4903      	ldr	r1, [pc, #12]	@ (800068c <stdio_exit_handler+0x14>)
 800067e:	4804      	ldr	r0, [pc, #16]	@ (8000690 <stdio_exit_handler+0x18>)
 8000680:	f000 f86c 	bl	800075c <_fwalk_sglue>
 8000684:	bd10      	pop	{r4, pc}
 8000686:	46c0      	nop			@ (mov r8, r8)
 8000688:	20000000 	.word	0x20000000
 800068c:	08000e39 	.word	0x08000e39
 8000690:	20000010 	.word	0x20000010

08000694 <cleanup_stdio>:
 8000694:	6841      	ldr	r1, [r0, #4]
 8000696:	4b0b      	ldr	r3, [pc, #44]	@ (80006c4 <cleanup_stdio+0x30>)
 8000698:	b510      	push	{r4, lr}
 800069a:	0004      	movs	r4, r0
 800069c:	4299      	cmp	r1, r3
 800069e:	d001      	beq.n	80006a4 <cleanup_stdio+0x10>
 80006a0:	f000 fbca 	bl	8000e38 <_fflush_r>
 80006a4:	68a1      	ldr	r1, [r4, #8]
 80006a6:	4b08      	ldr	r3, [pc, #32]	@ (80006c8 <cleanup_stdio+0x34>)
 80006a8:	4299      	cmp	r1, r3
 80006aa:	d002      	beq.n	80006b2 <cleanup_stdio+0x1e>
 80006ac:	0020      	movs	r0, r4
 80006ae:	f000 fbc3 	bl	8000e38 <_fflush_r>
 80006b2:	68e1      	ldr	r1, [r4, #12]
 80006b4:	4b05      	ldr	r3, [pc, #20]	@ (80006cc <cleanup_stdio+0x38>)
 80006b6:	4299      	cmp	r1, r3
 80006b8:	d002      	beq.n	80006c0 <cleanup_stdio+0x2c>
 80006ba:	0020      	movs	r0, r4
 80006bc:	f000 fbbc 	bl	8000e38 <_fflush_r>
 80006c0:	bd10      	pop	{r4, pc}
 80006c2:	46c0      	nop			@ (mov r8, r8)
 80006c4:	2000007c 	.word	0x2000007c
 80006c8:	200000e4 	.word	0x200000e4
 80006cc:	2000014c 	.word	0x2000014c

080006d0 <global_stdio_init.part.0>:
 80006d0:	b510      	push	{r4, lr}
 80006d2:	4b09      	ldr	r3, [pc, #36]	@ (80006f8 <global_stdio_init.part.0+0x28>)
 80006d4:	4a09      	ldr	r2, [pc, #36]	@ (80006fc <global_stdio_init.part.0+0x2c>)
 80006d6:	2104      	movs	r1, #4
 80006d8:	601a      	str	r2, [r3, #0]
 80006da:	4809      	ldr	r0, [pc, #36]	@ (8000700 <global_stdio_init.part.0+0x30>)
 80006dc:	2200      	movs	r2, #0
 80006de:	f7ff ff95 	bl	800060c <std>
 80006e2:	2201      	movs	r2, #1
 80006e4:	2109      	movs	r1, #9
 80006e6:	4807      	ldr	r0, [pc, #28]	@ (8000704 <global_stdio_init.part.0+0x34>)
 80006e8:	f7ff ff90 	bl	800060c <std>
 80006ec:	2202      	movs	r2, #2
 80006ee:	2112      	movs	r1, #18
 80006f0:	4805      	ldr	r0, [pc, #20]	@ (8000708 <global_stdio_init.part.0+0x38>)
 80006f2:	f7ff ff8b 	bl	800060c <std>
 80006f6:	bd10      	pop	{r4, pc}
 80006f8:	200001b4 	.word	0x200001b4
 80006fc:	08000679 	.word	0x08000679
 8000700:	2000007c 	.word	0x2000007c
 8000704:	200000e4 	.word	0x200000e4
 8000708:	2000014c 	.word	0x2000014c

0800070c <__sfp_lock_acquire>:
 800070c:	b510      	push	{r4, lr}
 800070e:	4802      	ldr	r0, [pc, #8]	@ (8000718 <__sfp_lock_acquire+0xc>)
 8000710:	f000 fa0d 	bl	8000b2e <__retarget_lock_acquire_recursive>
 8000714:	bd10      	pop	{r4, pc}
 8000716:	46c0      	nop			@ (mov r8, r8)
 8000718:	200001bd 	.word	0x200001bd

0800071c <__sfp_lock_release>:
 800071c:	b510      	push	{r4, lr}
 800071e:	4802      	ldr	r0, [pc, #8]	@ (8000728 <__sfp_lock_release+0xc>)
 8000720:	f000 fa06 	bl	8000b30 <__retarget_lock_release_recursive>
 8000724:	bd10      	pop	{r4, pc}
 8000726:	46c0      	nop			@ (mov r8, r8)
 8000728:	200001bd 	.word	0x200001bd

0800072c <__sinit>:
 800072c:	b510      	push	{r4, lr}
 800072e:	0004      	movs	r4, r0
 8000730:	f7ff ffec 	bl	800070c <__sfp_lock_acquire>
 8000734:	6a23      	ldr	r3, [r4, #32]
 8000736:	2b00      	cmp	r3, #0
 8000738:	d002      	beq.n	8000740 <__sinit+0x14>
 800073a:	f7ff ffef 	bl	800071c <__sfp_lock_release>
 800073e:	bd10      	pop	{r4, pc}
 8000740:	4b04      	ldr	r3, [pc, #16]	@ (8000754 <__sinit+0x28>)
 8000742:	6223      	str	r3, [r4, #32]
 8000744:	4b04      	ldr	r3, [pc, #16]	@ (8000758 <__sinit+0x2c>)
 8000746:	681b      	ldr	r3, [r3, #0]
 8000748:	2b00      	cmp	r3, #0
 800074a:	d1f6      	bne.n	800073a <__sinit+0xe>
 800074c:	f7ff ffc0 	bl	80006d0 <global_stdio_init.part.0>
 8000750:	e7f3      	b.n	800073a <__sinit+0xe>
 8000752:	46c0      	nop			@ (mov r8, r8)
 8000754:	08000695 	.word	0x08000695
 8000758:	200001b4 	.word	0x200001b4

0800075c <_fwalk_sglue>:
 800075c:	b5f7      	push	{r0, r1, r2, r4, r5, r6, r7, lr}
 800075e:	0014      	movs	r4, r2
 8000760:	2600      	movs	r6, #0
 8000762:	9000      	str	r0, [sp, #0]
 8000764:	9101      	str	r1, [sp, #4]
 8000766:	68a5      	ldr	r5, [r4, #8]
 8000768:	6867      	ldr	r7, [r4, #4]
 800076a:	3f01      	subs	r7, #1
 800076c:	d504      	bpl.n	8000778 <_fwalk_sglue+0x1c>
 800076e:	6824      	ldr	r4, [r4, #0]
 8000770:	2c00      	cmp	r4, #0
 8000772:	d1f8      	bne.n	8000766 <_fwalk_sglue+0xa>
 8000774:	0030      	movs	r0, r6
 8000776:	bdfe      	pop	{r1, r2, r3, r4, r5, r6, r7, pc}
 8000778:	89ab      	ldrh	r3, [r5, #12]
 800077a:	2b01      	cmp	r3, #1
 800077c:	d908      	bls.n	8000790 <_fwalk_sglue+0x34>
 800077e:	220e      	movs	r2, #14
 8000780:	5eab      	ldrsh	r3, [r5, r2]
 8000782:	3301      	adds	r3, #1
 8000784:	d004      	beq.n	8000790 <_fwalk_sglue+0x34>
 8000786:	0029      	movs	r1, r5
 8000788:	9800      	ldr	r0, [sp, #0]
 800078a:	9b01      	ldr	r3, [sp, #4]
 800078c:	4798      	blx	r3
 800078e:	4306      	orrs	r6, r0
 8000790:	3568      	adds	r5, #104	@ 0x68
 8000792:	e7ea      	b.n	800076a <_fwalk_sglue+0xe>

08000794 <_puts_r>:
 8000794:	6a03      	ldr	r3, [r0, #32]
 8000796:	b570      	push	{r4, r5, r6, lr}
 8000798:	0005      	movs	r5, r0
 800079a:	000e      	movs	r6, r1
 800079c:	6884      	ldr	r4, [r0, #8]
 800079e:	2b00      	cmp	r3, #0
 80007a0:	d101      	bne.n	80007a6 <_puts_r+0x12>
 80007a2:	f7ff ffc3 	bl	800072c <__sinit>
 80007a6:	6e63      	ldr	r3, [r4, #100]	@ 0x64
 80007a8:	07db      	lsls	r3, r3, #31
 80007aa:	d405      	bmi.n	80007b8 <_puts_r+0x24>
 80007ac:	89a3      	ldrh	r3, [r4, #12]
 80007ae:	059b      	lsls	r3, r3, #22
 80007b0:	d402      	bmi.n	80007b8 <_puts_r+0x24>
 80007b2:	6da0      	ldr	r0, [r4, #88]	@ 0x58
 80007b4:	f000 f9bb 	bl	8000b2e <__retarget_lock_acquire_recursive>
 80007b8:	89a3      	ldrh	r3, [r4, #12]
 80007ba:	071b      	lsls	r3, r3, #28
 80007bc:	d502      	bpl.n	80007c4 <_puts_r+0x30>
 80007be:	6923      	ldr	r3, [r4, #16]
 80007c0:	2b00      	cmp	r3, #0
 80007c2:	d11f      	bne.n	8000804 <_puts_r+0x70>
 80007c4:	0021      	movs	r1, r4
 80007c6:	0028      	movs	r0, r5
 80007c8:	f000 f8d2 	bl	8000970 <__swsetup_r>
 80007cc:	2800      	cmp	r0, #0
 80007ce:	d019      	beq.n	8000804 <_puts_r+0x70>
 80007d0:	2501      	movs	r5, #1
 80007d2:	426d      	negs	r5, r5
 80007d4:	6e63      	ldr	r3, [r4, #100]	@ 0x64
 80007d6:	07db      	lsls	r3, r3, #31
 80007d8:	d405      	bmi.n	80007e6 <_puts_r+0x52>
 80007da:	89a3      	ldrh	r3, [r4, #12]
 80007dc:	059b      	lsls	r3, r3, #22
 80007de:	d402      	bmi.n	80007e6 <_puts_r+0x52>
 80007e0:	6da0      	ldr	r0, [r4, #88]	@ 0x58
 80007e2:	f000 f9a5 	bl	8000b30 <__retarget_lock_release_recursive>
 80007e6:	0028      	movs	r0, r5
 80007e8:	bd70      	pop	{r4, r5, r6, pc}
 80007ea:	3601      	adds	r6, #1
 80007ec:	60a3      	str	r3, [r4, #8]
 80007ee:	2b00      	cmp	r3, #0
 80007f0:	da04      	bge.n	80007fc <_puts_r+0x68>
 80007f2:	69a2      	ldr	r2, [r4, #24]
 80007f4:	429a      	cmp	r2, r3
 80007f6:	dc16      	bgt.n	8000826 <_puts_r+0x92>
 80007f8:	290a      	cmp	r1, #10
 80007fa:	d014      	beq.n	8000826 <_puts_r+0x92>
 80007fc:	6823      	ldr	r3, [r4, #0]
 80007fe:	1c5a      	adds	r2, r3, #1
 8000800:	6022      	str	r2, [r4, #0]
 8000802:	7019      	strb	r1, [r3, #0]
 8000804:	68a3      	ldr	r3, [r4, #8]
 8000806:	7831      	ldrb	r1, [r6, #0]
 8000808:	3b01      	subs	r3, #1
 800080a:	2900      	cmp	r1, #0
 800080c:	d1ed      	bne.n	80007ea <_puts_r+0x56>
 800080e:	60a3      	str	r3, [r4, #8]
 8000810:	2b00      	cmp	r3, #0
 8000812:	da0f      	bge.n	8000834 <_puts_r+0xa0>
 8000814:	0022      	movs	r2, r4
 8000816:	0028      	movs	r0, r5
 8000818:	310a      	adds	r1, #10
 800081a:	f000 f867 	bl	80008ec <__swbuf_r>
 800081e:	3001      	adds	r0, #1
 8000820:	d0d6      	beq.n	80007d0 <_puts_r+0x3c>
 8000822:	250a      	movs	r5, #10
 8000824:	e7d6      	b.n	80007d4 <_puts_r+0x40>
 8000826:	0022      	movs	r2, r4
 8000828:	0028      	movs	r0, r5
 800082a:	f000 f85f 	bl	80008ec <__swbuf_r>
 800082e:	3001      	adds	r0, #1
 8000830:	d1e8      	bne.n	8000804 <_puts_r+0x70>
 8000832:	e7cd      	b.n	80007d0 <_puts_r+0x3c>
 8000834:	6823      	ldr	r3, [r4, #0]
 8000836:	1c5a      	adds	r2, r3, #1
 8000838:	6022      	str	r2, [r4, #0]
 800083a:	220a      	movs	r2, #10
 800083c:	701a      	strb	r2, [r3, #0]
 800083e:	e7f0      	b.n	8000822 <_puts_r+0x8e>

08000840 <puts>:
 8000840:	b510      	push	{r4, lr}
 8000842:	4b03      	ldr	r3, [pc, #12]	@ (8000850 <puts+0x10>)
 8000844:	0001      	movs	r1, r0
 8000846:	6818      	ldr	r0, [r3, #0]
 8000848:	f7ff ffa4 	bl	8000794 <_puts_r>
 800084c:	bd10      	pop	{r4, pc}
 800084e:	46c0      	nop			@ (mov r8, r8)
 8000850:	2000000c 	.word	0x2000000c

08000854 <__sread>:
 8000854:	b570      	push	{r4, r5, r6, lr}
 8000856:	000c      	movs	r4, r1
 8000858:	250e      	movs	r5, #14
 800085a:	5f49      	ldrsh	r1, [r1, r5]
 800085c:	f000 f914 	bl	8000a88 <_read_r>
 8000860:	2800      	cmp	r0, #0
 8000862:	db03      	blt.n	800086c <__sread+0x18>
 8000864:	6d63      	ldr	r3, [r4, #84]	@ 0x54
 8000866:	181b      	adds	r3, r3, r0
 8000868:	6563      	str	r3, [r4, #84]	@ 0x54
 800086a:	bd70      	pop	{r4, r5, r6, pc}
 800086c:	89a3      	ldrh	r3, [r4, #12]
 800086e:	4a02      	ldr	r2, [pc, #8]	@ (8000878 <__sread+0x24>)
 8000870:	4013      	ands	r3, r2
 8000872:	81a3      	strh	r3, [r4, #12]
 8000874:	e7f9      	b.n	800086a <__sread+0x16>
 8000876:	46c0      	nop			@ (mov r8, r8)
 8000878:	ffffefff 	.word	0xffffefff

0800087c <__swrite>:
 800087c:	b5f8      	push	{r3, r4, r5, r6, r7, lr}
 800087e:	001f      	movs	r7, r3
 8000880:	898b      	ldrh	r3, [r1, #12]
 8000882:	0005      	movs	r5, r0
 8000884:	000c      	movs	r4, r1
 8000886:	0016      	movs	r6, r2
 8000888:	05db      	lsls	r3, r3, #23
 800088a:	d505      	bpl.n	8000898 <__swrite+0x1c>
 800088c:	230e      	movs	r3, #14
 800088e:	5ec9      	ldrsh	r1, [r1, r3]
 8000890:	2200      	movs	r2, #0
 8000892:	2302      	movs	r3, #2
 8000894:	f000 f8e4 	bl	8000a60 <_lseek_r>
 8000898:	89a3      	ldrh	r3, [r4, #12]
 800089a:	4a05      	ldr	r2, [pc, #20]	@ (80008b0 <__swrite+0x34>)
 800089c:	0028      	movs	r0, r5
 800089e:	4013      	ands	r3, r2
 80008a0:	81a3      	strh	r3, [r4, #12]
 80008a2:	0032      	movs	r2, r6
 80008a4:	230e      	movs	r3, #14
 80008a6:	5ee1      	ldrsh	r1, [r4, r3]
 80008a8:	003b      	movs	r3, r7
 80008aa:	f000 f901 	bl	8000ab0 <_write_r>
 80008ae:	bdf8      	pop	{r3, r4, r5, r6, r7, pc}
 80008b0:	ffffefff 	.word	0xffffefff

080008b4 <__sseek>:
 80008b4:	b570      	push	{r4, r5, r6, lr}
 80008b6:	000c      	movs	r4, r1
 80008b8:	250e      	movs	r5, #14
 80008ba:	5f49      	ldrsh	r1, [r1, r5]
 80008bc:	f000 f8d0 	bl	8000a60 <_lseek_r>
 80008c0:	89a3      	ldrh	r3, [r4, #12]
 80008c2:	1c42      	adds	r2, r0, #1
 80008c4:	d103      	bne.n	80008ce <__sseek+0x1a>
 80008c6:	4a05      	ldr	r2, [pc, #20]	@ (80008dc <__sseek+0x28>)
 80008c8:	4013      	ands	r3, r2
 80008ca:	81a3      	strh	r3, [r4, #12]
 80008cc:	bd70      	pop	{r4, r5, r6, pc}
 80008ce:	2280      	movs	r2, #128	@ 0x80
 80008d0:	0152      	lsls	r2, r2, #5
 80008d2:	4313      	orrs	r3, r2
 80008d4:	81a3      	strh	r3, [r4, #12]
 80008d6:	6560      	str	r0, [r4, #84]	@ 0x54
 80008d8:	e7f8      	b.n	80008cc <__sseek+0x18>
 80008da:	46c0      	nop			@ (mov r8, r8)
 80008dc:	ffffefff 	.word	0xffffefff

080008e0 <__sclose>:
 80008e0:	b510      	push	{r4, lr}
 80008e2:	230e      	movs	r3, #14
 80008e4:	5ec9      	ldrsh	r1, [r1, r3]
 80008e6:	f000 f8a9 	bl	8000a3c <_close_r>
 80008ea:	bd10      	pop	{r4, pc}

080008ec <__swbuf_r>:
 80008ec:	b5f8      	push	{r3, r4, r5, r6, r7, lr}
 80008ee:	0006      	movs	r6, r0
 80008f0:	000d      	movs	r5, r1
 80008f2:	0014      	movs	r4, r2
 80008f4:	2800      	cmp	r0, #0
 80008f6:	d004      	beq.n	8000902 <__swbuf_r+0x16>
 80008f8:	6a03      	ldr	r3, [r0, #32]
 80008fa:	2b00      	cmp	r3, #0
 80008fc:	d101      	bne.n	8000902 <__swbuf_r+0x16>
 80008fe:	f7ff ff15 	bl	800072c <__sinit>
 8000902:	69a3      	ldr	r3, [r4, #24]
 8000904:	60a3      	str	r3, [r4, #8]
 8000906:	89a3      	ldrh	r3, [r4, #12]
 8000908:	071b      	lsls	r3, r3, #28
 800090a:	d502      	bpl.n	8000912 <__swbuf_r+0x26>
 800090c:	6923      	ldr	r3, [r4, #16]
 800090e:	2b00      	cmp	r3, #0
 8000910:	d109      	bne.n	8000926 <__swbuf_r+0x3a>
 8000912:	0021      	movs	r1, r4
 8000914:	0030      	movs	r0, r6
 8000916:	f000 f82b 	bl	8000970 <__swsetup_r>
 800091a:	2800      	cmp	r0, #0
 800091c:	d003      	beq.n	8000926 <__swbuf_r+0x3a>
 800091e:	2501      	movs	r5, #1
 8000920:	426d      	negs	r5, r5
 8000922:	0028      	movs	r0, r5
 8000924:	bdf8      	pop	{r3, r4, r5, r6, r7, pc}
 8000926:	6923      	ldr	r3, [r4, #16]
 8000928:	6820      	ldr	r0, [r4, #0]
 800092a:	b2ef      	uxtb	r7, r5
 800092c:	1ac0      	subs	r0, r0, r3
 800092e:	6963      	ldr	r3, [r4, #20]
 8000930:	b2ed      	uxtb	r5, r5
 8000932:	4283      	cmp	r3, r0
 8000934:	dc05      	bgt.n	8000942 <__swbuf_r+0x56>
 8000936:	0021      	movs	r1, r4
 8000938:	0030      	movs	r0, r6
 800093a:	f000 fa7d 	bl	8000e38 <_fflush_r>
 800093e:	2800      	cmp	r0, #0
 8000940:	d1ed      	bne.n	800091e <__swbuf_r+0x32>
 8000942:	68a3      	ldr	r3, [r4, #8]
 8000944:	3001      	adds	r0, #1
 8000946:	3b01      	subs	r3, #1
 8000948:	60a3      	str	r3, [r4, #8]
 800094a:	6823      	ldr	r3, [r4, #0]
 800094c:	1c5a      	adds	r2, r3, #1
 800094e:	6022      	str	r2, [r4, #0]
 8000950:	701f      	strb	r7, [r3, #0]
 8000952:	6963      	ldr	r3, [r4, #20]
 8000954:	4283      	cmp	r3, r0
 8000956:	d004      	beq.n	8000962 <__swbuf_r+0x76>
 8000958:	89a3      	ldrh	r3, [r4, #12]
 800095a:	07db      	lsls	r3, r3, #31
 800095c:	d5e1      	bpl.n	8000922 <__swbuf_r+0x36>
 800095e:	2d0a      	cmp	r5, #10
 8000960:	d1df      	bne.n	8000922 <__swbuf_r+0x36>
 8000962:	0021      	movs	r1, r4
 8000964:	0030      	movs	r0, r6
 8000966:	f000 fa67 	bl	8000e38 <_fflush_r>
 800096a:	2800      	cmp	r0, #0
 800096c:	d0d9      	beq.n	8000922 <__swbuf_r+0x36>
 800096e:	e7d6      	b.n	800091e <__swbuf_r+0x32>

08000970 <__swsetup_r>:
 8000970:	4b2d      	ldr	r3, [pc, #180]	@ (8000a28 <__swsetup_r+0xb8>)
 8000972:	b570      	push	{r4, r5, r6, lr}
 8000974:	0005      	movs	r5, r0
 8000976:	6818      	ldr	r0, [r3, #0]
 8000978:	000c      	movs	r4, r1
 800097a:	2800      	cmp	r0, #0
 800097c:	d004      	beq.n	8000988 <__swsetup_r+0x18>
 800097e:	6a03      	ldr	r3, [r0, #32]
 8000980:	2b00      	cmp	r3, #0
 8000982:	d101      	bne.n	8000988 <__swsetup_r+0x18>
 8000984:	f7ff fed2 	bl	800072c <__sinit>
 8000988:	220c      	movs	r2, #12
 800098a:	5ea3      	ldrsh	r3, [r4, r2]
 800098c:	071a      	lsls	r2, r3, #28
 800098e:	d423      	bmi.n	80009d8 <__swsetup_r+0x68>
 8000990:	06da      	lsls	r2, r3, #27
 8000992:	d407      	bmi.n	80009a4 <__swsetup_r+0x34>
 8000994:	2209      	movs	r2, #9
 8000996:	602a      	str	r2, [r5, #0]
 8000998:	2240      	movs	r2, #64	@ 0x40
 800099a:	2001      	movs	r0, #1
 800099c:	4313      	orrs	r3, r2
 800099e:	81a3      	strh	r3, [r4, #12]
 80009a0:	4240      	negs	r0, r0
 80009a2:	e03a      	b.n	8000a1a <__swsetup_r+0xaa>
 80009a4:	075b      	lsls	r3, r3, #29
 80009a6:	d513      	bpl.n	80009d0 <__swsetup_r+0x60>
 80009a8:	6b61      	ldr	r1, [r4, #52]	@ 0x34
 80009aa:	2900      	cmp	r1, #0
 80009ac:	d008      	beq.n	80009c0 <__swsetup_r+0x50>
 80009ae:	0023      	movs	r3, r4
 80009b0:	3344      	adds	r3, #68	@ 0x44
 80009b2:	4299      	cmp	r1, r3
 80009b4:	d002      	beq.n	80009bc <__swsetup_r+0x4c>
 80009b6:	0028      	movs	r0, r5
 80009b8:	f000 f8bc 	bl	8000b34 <_free_r>
 80009bc:	2300      	movs	r3, #0
 80009be:	6363      	str	r3, [r4, #52]	@ 0x34
 80009c0:	2224      	movs	r2, #36	@ 0x24
 80009c2:	89a3      	ldrh	r3, [r4, #12]
 80009c4:	4393      	bics	r3, r2
 80009c6:	81a3      	strh	r3, [r4, #12]
 80009c8:	2300      	movs	r3, #0
 80009ca:	6063      	str	r3, [r4, #4]
 80009cc:	6923      	ldr	r3, [r4, #16]
 80009ce:	6023      	str	r3, [r4, #0]
 80009d0:	2308      	movs	r3, #8
 80009d2:	89a2      	ldrh	r2, [r4, #12]
 80009d4:	4313      	orrs	r3, r2
 80009d6:	81a3      	strh	r3, [r4, #12]
 80009d8:	6923      	ldr	r3, [r4, #16]
 80009da:	2b00      	cmp	r3, #0
 80009dc:	d10b      	bne.n	80009f6 <__swsetup_r+0x86>
 80009de:	21a0      	movs	r1, #160	@ 0xa0
 80009e0:	2280      	movs	r2, #128	@ 0x80
 80009e2:	89a3      	ldrh	r3, [r4, #12]
 80009e4:	0089      	lsls	r1, r1, #2
 80009e6:	0092      	lsls	r2, r2, #2
 80009e8:	400b      	ands	r3, r1
 80009ea:	4293      	cmp	r3, r2
 80009ec:	d003      	beq.n	80009f6 <__swsetup_r+0x86>
 80009ee:	0021      	movs	r1, r4
 80009f0:	0028      	movs	r0, r5
 80009f2:	f000 fa77 	bl	8000ee4 <__smakebuf_r>
 80009f6:	220c      	movs	r2, #12
 80009f8:	5ea3      	ldrsh	r3, [r4, r2]
 80009fa:	2101      	movs	r1, #1
 80009fc:	001a      	movs	r2, r3
 80009fe:	400a      	ands	r2, r1
 8000a00:	420b      	tst	r3, r1
 8000a02:	d00b      	beq.n	8000a1c <__swsetup_r+0xac>
 8000a04:	2200      	movs	r2, #0
 8000a06:	60a2      	str	r2, [r4, #8]
 8000a08:	6962      	ldr	r2, [r4, #20]
 8000a0a:	4252      	negs	r2, r2
 8000a0c:	61a2      	str	r2, [r4, #24]
 8000a0e:	2000      	movs	r0, #0
 8000a10:	6922      	ldr	r2, [r4, #16]
 8000a12:	4282      	cmp	r2, r0
 8000a14:	d101      	bne.n	8000a1a <__swsetup_r+0xaa>
 8000a16:	061a      	lsls	r2, r3, #24
 8000a18:	d4be      	bmi.n	8000998 <__swsetup_r+0x28>
 8000a1a:	bd70      	pop	{r4, r5, r6, pc}
 8000a1c:	0799      	lsls	r1, r3, #30
 8000a1e:	d400      	bmi.n	8000a22 <__swsetup_r+0xb2>
 8000a20:	6962      	ldr	r2, [r4, #20]
 8000a22:	60a2      	str	r2, [r4, #8]
 8000a24:	e7f3      	b.n	8000a0e <__swsetup_r+0x9e>
 8000a26:	46c0      	nop			@ (mov r8, r8)
 8000a28:	2000000c 	.word	0x2000000c

08000a2c <memset>:
 8000a2c:	0003      	movs	r3, r0
 8000a2e:	1882      	adds	r2, r0, r2
 8000a30:	4293      	cmp	r3, r2
 8000a32:	d100      	bne.n	8000a36 <memset+0xa>
 8000a34:	4770      	bx	lr
 8000a36:	7019      	strb	r1, [r3, #0]
 8000a38:	3301      	adds	r3, #1
 8000a3a:	e7f9      	b.n	8000a30 <memset+0x4>

08000a3c <_close_r>:
 8000a3c:	2300      	movs	r3, #0
 8000a3e:	b570      	push	{r4, r5, r6, lr}
 8000a40:	4d06      	ldr	r5, [pc, #24]	@ (8000a5c <_close_r+0x20>)
 8000a42:	0004      	movs	r4, r0
 8000a44:	0008      	movs	r0, r1
 8000a46:	602b      	str	r3, [r5, #0]
 8000a48:	f7ff fcb9 	bl	80003be <_close>
 8000a4c:	1c43      	adds	r3, r0, #1
 8000a4e:	d103      	bne.n	8000a58 <_close_r+0x1c>
 8000a50:	682b      	ldr	r3, [r5, #0]
 8000a52:	2b00      	cmp	r3, #0
 8000a54:	d000      	beq.n	8000a58 <_close_r+0x1c>
 8000a56:	6023      	str	r3, [r4, #0]
 8000a58:	bd70      	pop	{r4, r5, r6, pc}
 8000a5a:	46c0      	nop			@ (mov r8, r8)
 8000a5c:	200001b8 	.word	0x200001b8

08000a60 <_lseek_r>:
 8000a60:	b570      	push	{r4, r5, r6, lr}
 8000a62:	0004      	movs	r4, r0
 8000a64:	0008      	movs	r0, r1
 8000a66:	0011      	movs	r1, r2
 8000a68:	001a      	movs	r2, r3
 8000a6a:	2300      	movs	r3, #0
 8000a6c:	4d05      	ldr	r5, [pc, #20]	@ (8000a84 <_lseek_r+0x24>)
 8000a6e:	602b      	str	r3, [r5, #0]
 8000a70:	f7ff fcc6 	bl	8000400 <_lseek>
 8000a74:	1c43      	adds	r3, r0, #1
 8000a76:	d103      	bne.n	8000a80 <_lseek_r+0x20>
 8000a78:	682b      	ldr	r3, [r5, #0]
 8000a7a:	2b00      	cmp	r3, #0
 8000a7c:	d000      	beq.n	8000a80 <_lseek_r+0x20>
 8000a7e:	6023      	str	r3, [r4, #0]
 8000a80:	bd70      	pop	{r4, r5, r6, pc}
 8000a82:	46c0      	nop			@ (mov r8, r8)
 8000a84:	200001b8 	.word	0x200001b8

08000a88 <_read_r>:
 8000a88:	b570      	push	{r4, r5, r6, lr}
 8000a8a:	0004      	movs	r4, r0
 8000a8c:	0008      	movs	r0, r1
 8000a8e:	0011      	movs	r1, r2
 8000a90:	001a      	movs	r2, r3
 8000a92:	2300      	movs	r3, #0
 8000a94:	4d05      	ldr	r5, [pc, #20]	@ (8000aac <_read_r+0x24>)
 8000a96:	602b      	str	r3, [r5, #0]
 8000a98:	f7ff fc58 	bl	800034c <_read>
 8000a9c:	1c43      	adds	r3, r0, #1
 8000a9e:	d103      	bne.n	8000aa8 <_read_r+0x20>
 8000aa0:	682b      	ldr	r3, [r5, #0]
 8000aa2:	2b00      	cmp	r3, #0
 8000aa4:	d000      	beq.n	8000aa8 <_read_r+0x20>
 8000aa6:	6023      	str	r3, [r4, #0]
 8000aa8:	bd70      	pop	{r4, r5, r6, pc}
 8000aaa:	46c0      	nop			@ (mov r8, r8)
 8000aac:	200001b8 	.word	0x200001b8

08000ab0 <_write_r>:
 8000ab0:	b570      	push	{r4, r5, r6, lr}
 8000ab2:	0004      	movs	r4, r0
 8000ab4:	0008      	movs	r0, r1
 8000ab6:	0011      	movs	r1, r2
 8000ab8:	001a      	movs	r2, r3
 8000aba:	2300      	movs	r3, #0
 8000abc:	4d05      	ldr	r5, [pc, #20]	@ (8000ad4 <_write_r+0x24>)
 8000abe:	602b      	str	r3, [r5, #0]
 8000ac0:	f7ff fc61 	bl	8000386 <_write>
 8000ac4:	1c43      	adds	r3, r0, #1
 8000ac6:	d103      	bne.n	8000ad0 <_write_r+0x20>
 8000ac8:	682b      	ldr	r3, [r5, #0]
 8000aca:	2b00      	cmp	r3, #0
 8000acc:	d000      	beq.n	8000ad0 <_write_r+0x20>
 8000ace:	6023      	str	r3, [r4, #0]
 8000ad0:	bd70      	pop	{r4, r5, r6, pc}
 8000ad2:	46c0      	nop			@ (mov r8, r8)
 8000ad4:	200001b8 	.word	0x200001b8

08000ad8 <__errno>:
 8000ad8:	4b01      	ldr	r3, [pc, #4]	@ (8000ae0 <__errno+0x8>)
 8000ada:	6818      	ldr	r0, [r3, #0]
 8000adc:	4770      	bx	lr
 8000ade:	46c0      	nop			@ (mov r8, r8)
 8000ae0:	2000000c 	.word	0x2000000c

08000ae4 <__libc_init_array>:
 8000ae4:	b570      	push	{r4, r5, r6, lr}
 8000ae6:	2600      	movs	r6, #0
 8000ae8:	4c0c      	ldr	r4, [pc, #48]	@ (8000b1c <__libc_init_array+0x38>)
 8000aea:	4d0d      	ldr	r5, [pc, #52]	@ (8000b20 <__libc_init_array+0x3c>)
 8000aec:	1b64      	subs	r4, r4, r5
 8000aee:	10a4      	asrs	r4, r4, #2
 8000af0:	42a6      	cmp	r6, r4
 8000af2:	d109      	bne.n	8000b08 <__libc_init_array+0x24>
 8000af4:	2600      	movs	r6, #0
 8000af6:	f000 fa6d 	bl	8000fd4 <_init>
 8000afa:	4c0a      	ldr	r4, [pc, #40]	@ (8000b24 <__libc_init_array+0x40>)
 8000afc:	4d0a      	ldr	r5, [pc, #40]	@ (8000b28 <__libc_init_array+0x44>)
 8000afe:	1b64      	subs	r4, r4, r5
 8000b00:	10a4      	asrs	r4, r4, #2
 8000b02:	42a6      	cmp	r6, r4
 8000b04:	d105      	bne.n	8000b12 <__libc_init_array+0x2e>
 8000b06:	bd70      	pop	{r4, r5, r6, pc}
 8000b08:	00b3      	lsls	r3, r6, #2
 8000b0a:	58eb      	ldr	r3, [r5, r3]
 8000b0c:	4798      	blx	r3
 8000b0e:	3601      	adds	r6, #1
 8000b10:	e7ee      	b.n	8000af0 <__libc_init_array+0xc>
 8000b12:	00b3      	lsls	r3, r6, #2
 8000b14:	58eb      	ldr	r3, [r5, r3]
 8000b16:	4798      	blx	r3
 8000b18:	3601      	adds	r6, #1
 8000b1a:	e7f2      	b.n	8000b02 <__libc_init_array+0x1e>
 8000b1c:	08001004 	.word	0x08001004
 8000b20:	08001004 	.word	0x08001004
 8000b24:	08001008 	.word	0x08001008
 8000b28:	08001004 	.word	0x08001004

08000b2c <__retarget_lock_init_recursive>:
 8000b2c:	4770      	bx	lr

08000b2e <__retarget_lock_acquire_recursive>:
 8000b2e:	4770      	bx	lr

08000b30 <__retarget_lock_release_recursive>:
 8000b30:	4770      	bx	lr
	...

08000b34 <_free_r>:
 8000b34:	b570      	push	{r4, r5, r6, lr}
 8000b36:	0005      	movs	r5, r0
 8000b38:	1e0c      	subs	r4, r1, #0
 8000b3a:	d010      	beq.n	8000b5e <_free_r+0x2a>
 8000b3c:	3c04      	subs	r4, #4
 8000b3e:	6823      	ldr	r3, [r4, #0]
 8000b40:	2b00      	cmp	r3, #0
 8000b42:	da00      	bge.n	8000b46 <_free_r+0x12>
 8000b44:	18e4      	adds	r4, r4, r3
 8000b46:	0028      	movs	r0, r5
 8000b48:	f000 f8e0 	bl	8000d0c <__malloc_lock>
 8000b4c:	4a1d      	ldr	r2, [pc, #116]	@ (8000bc4 <_free_r+0x90>)
 8000b4e:	6813      	ldr	r3, [r2, #0]
 8000b50:	2b00      	cmp	r3, #0
 8000b52:	d105      	bne.n	8000b60 <_free_r+0x2c>
 8000b54:	6063      	str	r3, [r4, #4]
 8000b56:	6014      	str	r4, [r2, #0]
 8000b58:	0028      	movs	r0, r5
 8000b5a:	f000 f8df 	bl	8000d1c <__malloc_unlock>
 8000b5e:	bd70      	pop	{r4, r5, r6, pc}
 8000b60:	42a3      	cmp	r3, r4
 8000b62:	d908      	bls.n	8000b76 <_free_r+0x42>
 8000b64:	6820      	ldr	r0, [r4, #0]
 8000b66:	1821      	adds	r1, r4, r0
 8000b68:	428b      	cmp	r3, r1
 8000b6a:	d1f3      	bne.n	8000b54 <_free_r+0x20>
 8000b6c:	6819      	ldr	r1, [r3, #0]
 8000b6e:	685b      	ldr	r3, [r3, #4]
 8000b70:	1809      	adds	r1, r1, r0
 8000b72:	6021      	str	r1, [r4, #0]
 8000b74:	e7ee      	b.n	8000b54 <_free_r+0x20>
 8000b76:	001a      	movs	r2, r3
 8000b78:	685b      	ldr	r3, [r3, #4]
 8000b7a:	2b00      	cmp	r3, #0
 8000b7c:	d001      	beq.n	8000b82 <_free_r+0x4e>
 8000b7e:	42a3      	cmp	r3, r4
 8000b80:	d9f9      	bls.n	8000b76 <_free_r+0x42>
 8000b82:	6811      	ldr	r1, [r2, #0]
 8000b84:	1850      	adds	r0, r2, r1
 8000b86:	42a0      	cmp	r0, r4
 8000b88:	d10b      	bne.n	8000ba2 <_free_r+0x6e>
 8000b8a:	6820      	ldr	r0, [r4, #0]
 8000b8c:	1809      	adds	r1, r1, r0
 8000b8e:	1850      	adds	r0, r2, r1
 8000b90:	6011      	str	r1, [r2, #0]
 8000b92:	4283      	cmp	r3, r0
 8000b94:	d1e0      	bne.n	8000b58 <_free_r+0x24>
 8000b96:	6818      	ldr	r0, [r3, #0]
 8000b98:	685b      	ldr	r3, [r3, #4]
 8000b9a:	1841      	adds	r1, r0, r1
 8000b9c:	6011      	str	r1, [r2, #0]
 8000b9e:	6053      	str	r3, [r2, #4]
 8000ba0:	e7da      	b.n	8000b58 <_free_r+0x24>
 8000ba2:	42a0      	cmp	r0, r4
 8000ba4:	d902      	bls.n	8000bac <_free_r+0x78>
 8000ba6:	230c      	movs	r3, #12
 8000ba8:	602b      	str	r3, [r5, #0]
 8000baa:	e7d5      	b.n	8000b58 <_free_r+0x24>
 8000bac:	6820      	ldr	r0, [r4, #0]
 8000bae:	1821      	adds	r1, r4, r0
 8000bb0:	428b      	cmp	r3, r1
 8000bb2:	d103      	bne.n	8000bbc <_free_r+0x88>
 8000bb4:	6819      	ldr	r1, [r3, #0]
 8000bb6:	685b      	ldr	r3, [r3, #4]
 8000bb8:	1809      	adds	r1, r1, r0
 8000bba:	6021      	str	r1, [r4, #0]
 8000bbc:	6063      	str	r3, [r4, #4]
 8000bbe:	6054      	str	r4, [r2, #4]
 8000bc0:	e7ca      	b.n	8000b58 <_free_r+0x24>
 8000bc2:	46c0      	nop			@ (mov r8, r8)
 8000bc4:	200001c4 	.word	0x200001c4

08000bc8 <sbrk_aligned>:
 8000bc8:	b570      	push	{r4, r5, r6, lr}
 8000bca:	4e0f      	ldr	r6, [pc, #60]	@ (8000c08 <sbrk_aligned+0x40>)
 8000bcc:	000d      	movs	r5, r1
 8000bce:	6831      	ldr	r1, [r6, #0]
 8000bd0:	0004      	movs	r4, r0
 8000bd2:	2900      	cmp	r1, #0
 8000bd4:	d102      	bne.n	8000bdc <sbrk_aligned+0x14>
 8000bd6:	f000 f9eb 	bl	8000fb0 <_sbrk_r>
 8000bda:	6030      	str	r0, [r6, #0]
 8000bdc:	0029      	movs	r1, r5
 8000bde:	0020      	movs	r0, r4
 8000be0:	f000 f9e6 	bl	8000fb0 <_sbrk_r>
 8000be4:	1c43      	adds	r3, r0, #1
 8000be6:	d103      	bne.n	8000bf0 <sbrk_aligned+0x28>
 8000be8:	2501      	movs	r5, #1
 8000bea:	426d      	negs	r5, r5
 8000bec:	0028      	movs	r0, r5
 8000bee:	bd70      	pop	{r4, r5, r6, pc}
 8000bf0:	2303      	movs	r3, #3
 8000bf2:	1cc5      	adds	r5, r0, #3
 8000bf4:	439d      	bics	r5, r3
 8000bf6:	42a8      	cmp	r0, r5
 8000bf8:	d0f8      	beq.n	8000bec <sbrk_aligned+0x24>
 8000bfa:	1a29      	subs	r1, r5, r0
 8000bfc:	0020      	movs	r0, r4
 8000bfe:	f000 f9d7 	bl	8000fb0 <_sbrk_r>
 8000c02:	3001      	adds	r0, #1
 8000c04:	d1f2      	bne.n	8000bec <sbrk_aligned+0x24>
 8000c06:	e7ef      	b.n	8000be8 <sbrk_aligned+0x20>
 8000c08:	200001c0 	.word	0x200001c0

08000c0c <_malloc_r>:
 8000c0c:	b5f7      	push	{r0, r1, r2, r4, r5, r6, r7, lr}
 8000c0e:	2203      	movs	r2, #3
 8000c10:	1ccb      	adds	r3, r1, #3
 8000c12:	4393      	bics	r3, r2
 8000c14:	3308      	adds	r3, #8
 8000c16:	0005      	movs	r5, r0
 8000c18:	001f      	movs	r7, r3
 8000c1a:	2b0c      	cmp	r3, #12
 8000c1c:	d234      	bcs.n	8000c88 <_malloc_r+0x7c>
 8000c1e:	270c      	movs	r7, #12
 8000c20:	42b9      	cmp	r1, r7
 8000c22:	d833      	bhi.n	8000c8c <_malloc_r+0x80>
 8000c24:	0028      	movs	r0, r5
 8000c26:	f000 f871 	bl	8000d0c <__malloc_lock>
 8000c2a:	4e37      	ldr	r6, [pc, #220]	@ (8000d08 <_malloc_r+0xfc>)
 8000c2c:	6833      	ldr	r3, [r6, #0]
 8000c2e:	001c      	movs	r4, r3
 8000c30:	2c00      	cmp	r4, #0
 8000c32:	d12f      	bne.n	8000c94 <_malloc_r+0x88>
 8000c34:	0039      	movs	r1, r7
 8000c36:	0028      	movs	r0, r5
 8000c38:	f7ff ffc6 	bl	8000bc8 <sbrk_aligned>
 8000c3c:	0004      	movs	r4, r0
 8000c3e:	1c43      	adds	r3, r0, #1
 8000c40:	d15f      	bne.n	8000d02 <_malloc_r+0xf6>
 8000c42:	6834      	ldr	r4, [r6, #0]
 8000c44:	9400      	str	r4, [sp, #0]
 8000c46:	9b00      	ldr	r3, [sp, #0]
 8000c48:	2b00      	cmp	r3, #0
 8000c4a:	d14a      	bne.n	8000ce2 <_malloc_r+0xd6>
 8000c4c:	2c00      	cmp	r4, #0
 8000c4e:	d052      	beq.n	8000cf6 <_malloc_r+0xea>
 8000c50:	6823      	ldr	r3, [r4, #0]
 8000c52:	0028      	movs	r0, r5
 8000c54:	18e3      	adds	r3, r4, r3
 8000c56:	9900      	ldr	r1, [sp, #0]
 8000c58:	9301      	str	r3, [sp, #4]
 8000c5a:	f000 f9a9 	bl	8000fb0 <_sbrk_r>
 8000c5e:	9b01      	ldr	r3, [sp, #4]
 8000c60:	4283      	cmp	r3, r0
 8000c62:	d148      	bne.n	8000cf6 <_malloc_r+0xea>
 8000c64:	6823      	ldr	r3, [r4, #0]
 8000c66:	0028      	movs	r0, r5
 8000c68:	1aff      	subs	r7, r7, r3
 8000c6a:	0039      	movs	r1, r7
 8000c6c:	f7ff ffac 	bl	8000bc8 <sbrk_aligned>
 8000c70:	3001      	adds	r0, #1
 8000c72:	d040      	beq.n	8000cf6 <_malloc_r+0xea>
 8000c74:	6823      	ldr	r3, [r4, #0]
 8000c76:	19db      	adds	r3, r3, r7
 8000c78:	6023      	str	r3, [r4, #0]
 8000c7a:	6833      	ldr	r3, [r6, #0]
 8000c7c:	685a      	ldr	r2, [r3, #4]
 8000c7e:	2a00      	cmp	r2, #0
 8000c80:	d133      	bne.n	8000cea <_malloc_r+0xde>
 8000c82:	9b00      	ldr	r3, [sp, #0]
 8000c84:	6033      	str	r3, [r6, #0]
 8000c86:	e019      	b.n	8000cbc <_malloc_r+0xb0>
 8000c88:	2b00      	cmp	r3, #0
 8000c8a:	dac9      	bge.n	8000c20 <_malloc_r+0x14>
 8000c8c:	230c      	movs	r3, #12
 8000c8e:	602b      	str	r3, [r5, #0]
 8000c90:	2000      	movs	r0, #0
 8000c92:	bdfe      	pop	{r1, r2, r3, r4, r5, r6, r7, pc}
 8000c94:	6821      	ldr	r1, [r4, #0]
 8000c96:	1bc9      	subs	r1, r1, r7
 8000c98:	d420      	bmi.n	8000cdc <_malloc_r+0xd0>
 8000c9a:	290b      	cmp	r1, #11
 8000c9c:	d90a      	bls.n	8000cb4 <_malloc_r+0xa8>
 8000c9e:	19e2      	adds	r2, r4, r7
 8000ca0:	6027      	str	r7, [r4, #0]
 8000ca2:	42a3      	cmp	r3, r4
 8000ca4:	d104      	bne.n	8000cb0 <_malloc_r+0xa4>
 8000ca6:	6032      	str	r2, [r6, #0]
 8000ca8:	6863      	ldr	r3, [r4, #4]
 8000caa:	6011      	str	r1, [r2, #0]
 8000cac:	6053      	str	r3, [r2, #4]
 8000cae:	e005      	b.n	8000cbc <_malloc_r+0xb0>
 8000cb0:	605a      	str	r2, [r3, #4]
 8000cb2:	e7f9      	b.n	8000ca8 <_malloc_r+0x9c>
 8000cb4:	6862      	ldr	r2, [r4, #4]
 8000cb6:	42a3      	cmp	r3, r4
 8000cb8:	d10e      	bne.n	8000cd8 <_malloc_r+0xcc>
 8000cba:	6032      	str	r2, [r6, #0]
 8000cbc:	0028      	movs	r0, r5
 8000cbe:	f000 f82d 	bl	8000d1c <__malloc_unlock>
 8000cc2:	0020      	movs	r0, r4
 8000cc4:	2207      	movs	r2, #7
 8000cc6:	300b      	adds	r0, #11
 8000cc8:	1d23      	adds	r3, r4, #4
 8000cca:	4390      	bics	r0, r2
 8000ccc:	1ac2      	subs	r2, r0, r3
 8000cce:	4298      	cmp	r0, r3
 8000cd0:	d0df      	beq.n	8000c92 <_malloc_r+0x86>
 8000cd2:	1a1b      	subs	r3, r3, r0
 8000cd4:	50a3      	str	r3, [r4, r2]
 8000cd6:	e7dc      	b.n	8000c92 <_malloc_r+0x86>
 8000cd8:	605a      	str	r2, [r3, #4]
 8000cda:	e7ef      	b.n	8000cbc <_malloc_r+0xb0>
 8000cdc:	0023      	movs	r3, r4
 8000cde:	6864      	ldr	r4, [r4, #4]
 8000ce0:	e7a6      	b.n	8000c30 <_malloc_r+0x24>
 8000ce2:	9c00      	ldr	r4, [sp, #0]
 8000ce4:	6863      	ldr	r3, [r4, #4]
 8000ce6:	9300      	str	r3, [sp, #0]
 8000ce8:	e7ad      	b.n	8000c46 <_malloc_r+0x3a>
 8000cea:	001a      	movs	r2, r3
 8000cec:	685b      	ldr	r3, [r3, #4]
 8000cee:	42a3      	cmp	r3, r4
 8000cf0:	d1fb      	bne.n	8000cea <_malloc_r+0xde>
 8000cf2:	2300      	movs	r3, #0
 8000cf4:	e7da      	b.n	8000cac <_malloc_r+0xa0>
 8000cf6:	230c      	movs	r3, #12
 8000cf8:	0028      	movs	r0, r5
 8000cfa:	602b      	str	r3, [r5, #0]
 8000cfc:	f000 f80e 	bl	8000d1c <__malloc_unlock>
 8000d00:	e7c6      	b.n	8000c90 <_malloc_r+0x84>
 8000d02:	6007      	str	r7, [r0, #0]
 8000d04:	e7da      	b.n	8000cbc <_malloc_r+0xb0>
 8000d06:	46c0      	nop			@ (mov r8, r8)
 8000d08:	200001c4 	.word	0x200001c4

08000d0c <__malloc_lock>:
 8000d0c:	b510      	push	{r4, lr}
 8000d0e:	4802      	ldr	r0, [pc, #8]	@ (8000d18 <__malloc_lock+0xc>)
 8000d10:	f7ff ff0d 	bl	8000b2e <__retarget_lock_acquire_recursive>
 8000d14:	bd10      	pop	{r4, pc}
 8000d16:	46c0      	nop			@ (mov r8, r8)
 8000d18:	200001bc 	.word	0x200001bc

08000d1c <__malloc_unlock>:
 8000d1c:	b510      	push	{r4, lr}
 8000d1e:	4802      	ldr	r0, [pc, #8]	@ (8000d28 <__malloc_unlock+0xc>)
 8000d20:	f7ff ff06 	bl	8000b30 <__retarget_lock_release_recursive>
 8000d24:	bd10      	pop	{r4, pc}
 8000d26:	46c0      	nop			@ (mov r8, r8)
 8000d28:	200001bc 	.word	0x200001bc

08000d2c <__sflush_r>:
 8000d2c:	b5f7      	push	{r0, r1, r2, r4, r5, r6, r7, lr}
 8000d2e:	220c      	movs	r2, #12
 8000d30:	5e8b      	ldrsh	r3, [r1, r2]
 8000d32:	0005      	movs	r5, r0
 8000d34:	000c      	movs	r4, r1
 8000d36:	071a      	lsls	r2, r3, #28
 8000d38:	d456      	bmi.n	8000de8 <__sflush_r+0xbc>
 8000d3a:	684a      	ldr	r2, [r1, #4]
 8000d3c:	2a00      	cmp	r2, #0
 8000d3e:	dc02      	bgt.n	8000d46 <__sflush_r+0x1a>
 8000d40:	6c0a      	ldr	r2, [r1, #64]	@ 0x40
 8000d42:	2a00      	cmp	r2, #0
 8000d44:	dd4e      	ble.n	8000de4 <__sflush_r+0xb8>
 8000d46:	6ae7      	ldr	r7, [r4, #44]	@ 0x2c
 8000d48:	2f00      	cmp	r7, #0
 8000d4a:	d04b      	beq.n	8000de4 <__sflush_r+0xb8>
 8000d4c:	2200      	movs	r2, #0
 8000d4e:	2080      	movs	r0, #128	@ 0x80
 8000d50:	682e      	ldr	r6, [r5, #0]
 8000d52:	602a      	str	r2, [r5, #0]
 8000d54:	001a      	movs	r2, r3
 8000d56:	0140      	lsls	r0, r0, #5
 8000d58:	6a21      	ldr	r1, [r4, #32]
 8000d5a:	4002      	ands	r2, r0
 8000d5c:	4203      	tst	r3, r0
 8000d5e:	d033      	beq.n	8000dc8 <__sflush_r+0x9c>
 8000d60:	6d62      	ldr	r2, [r4, #84]	@ 0x54
 8000d62:	89a3      	ldrh	r3, [r4, #12]
 8000d64:	075b      	lsls	r3, r3, #29
 8000d66:	d506      	bpl.n	8000d76 <__sflush_r+0x4a>
 8000d68:	6863      	ldr	r3, [r4, #4]
 8000d6a:	1ad2      	subs	r2, r2, r3
 8000d6c:	6b63      	ldr	r3, [r4, #52]	@ 0x34
 8000d6e:	2b00      	cmp	r3, #0
 8000d70:	d001      	beq.n	8000d76 <__sflush_r+0x4a>
 8000d72:	6c23      	ldr	r3, [r4, #64]	@ 0x40
 8000d74:	1ad2      	subs	r2, r2, r3
 8000d76:	2300      	movs	r3, #0
 8000d78:	0028      	movs	r0, r5
 8000d7a:	6ae7      	ldr	r7, [r4, #44]	@ 0x2c
 8000d7c:	6a21      	ldr	r1, [r4, #32]
 8000d7e:	47b8      	blx	r7
 8000d80:	89a2      	ldrh	r2, [r4, #12]
 8000d82:	1c43      	adds	r3, r0, #1
 8000d84:	d106      	bne.n	8000d94 <__sflush_r+0x68>
 8000d86:	6829      	ldr	r1, [r5, #0]
 8000d88:	291d      	cmp	r1, #29
 8000d8a:	d846      	bhi.n	8000e1a <__sflush_r+0xee>
 8000d8c:	4b29      	ldr	r3, [pc, #164]	@ (8000e34 <__sflush_r+0x108>)
 8000d8e:	40cb      	lsrs	r3, r1
 8000d90:	07db      	lsls	r3, r3, #31
 8000d92:	d542      	bpl.n	8000e1a <__sflush_r+0xee>
 8000d94:	2300      	movs	r3, #0
 8000d96:	6063      	str	r3, [r4, #4]
 8000d98:	6923      	ldr	r3, [r4, #16]
 8000d9a:	6023      	str	r3, [r4, #0]
 8000d9c:	04d2      	lsls	r2, r2, #19
 8000d9e:	d505      	bpl.n	8000dac <__sflush_r+0x80>
 8000da0:	1c43      	adds	r3, r0, #1
 8000da2:	d102      	bne.n	8000daa <__sflush_r+0x7e>
 8000da4:	682b      	ldr	r3, [r5, #0]
 8000da6:	2b00      	cmp	r3, #0
 8000da8:	d100      	bne.n	8000dac <__sflush_r+0x80>
 8000daa:	6560      	str	r0, [r4, #84]	@ 0x54
 8000dac:	6b61      	ldr	r1, [r4, #52]	@ 0x34
 8000dae:	602e      	str	r6, [r5, #0]
 8000db0:	2900      	cmp	r1, #0
 8000db2:	d017      	beq.n	8000de4 <__sflush_r+0xb8>
 8000db4:	0023      	movs	r3, r4
 8000db6:	3344      	adds	r3, #68	@ 0x44
 8000db8:	4299      	cmp	r1, r3
 8000dba:	d002      	beq.n	8000dc2 <__sflush_r+0x96>
 8000dbc:	0028      	movs	r0, r5
 8000dbe:	f7ff feb9 	bl	8000b34 <_free_r>
 8000dc2:	2300      	movs	r3, #0
 8000dc4:	6363      	str	r3, [r4, #52]	@ 0x34
 8000dc6:	e00d      	b.n	8000de4 <__sflush_r+0xb8>
 8000dc8:	2301      	movs	r3, #1
 8000dca:	0028      	movs	r0, r5
 8000dcc:	47b8      	blx	r7
 8000dce:	0002      	movs	r2, r0
 8000dd0:	1c43      	adds	r3, r0, #1
 8000dd2:	d1c6      	bne.n	8000d62 <__sflush_r+0x36>
 8000dd4:	682b      	ldr	r3, [r5, #0]
 8000dd6:	2b00      	cmp	r3, #0
 8000dd8:	d0c3      	beq.n	8000d62 <__sflush_r+0x36>
 8000dda:	2b1d      	cmp	r3, #29
 8000ddc:	d001      	beq.n	8000de2 <__sflush_r+0xb6>
 8000dde:	2b16      	cmp	r3, #22
 8000de0:	d11a      	bne.n	8000e18 <__sflush_r+0xec>
 8000de2:	602e      	str	r6, [r5, #0]
 8000de4:	2000      	movs	r0, #0
 8000de6:	e01e      	b.n	8000e26 <__sflush_r+0xfa>
 8000de8:	690e      	ldr	r6, [r1, #16]
 8000dea:	2e00      	cmp	r6, #0
 8000dec:	d0fa      	beq.n	8000de4 <__sflush_r+0xb8>
 8000dee:	680f      	ldr	r7, [r1, #0]
 8000df0:	600e      	str	r6, [r1, #0]
 8000df2:	1bba      	subs	r2, r7, r6
 8000df4:	9201      	str	r2, [sp, #4]
 8000df6:	2200      	movs	r2, #0
 8000df8:	079b      	lsls	r3, r3, #30
 8000dfa:	d100      	bne.n	8000dfe <__sflush_r+0xd2>
 8000dfc:	694a      	ldr	r2, [r1, #20]
 8000dfe:	60a2      	str	r2, [r4, #8]
 8000e00:	9b01      	ldr	r3, [sp, #4]
 8000e02:	2b00      	cmp	r3, #0
 8000e04:	ddee      	ble.n	8000de4 <__sflush_r+0xb8>
 8000e06:	6aa3      	ldr	r3, [r4, #40]	@ 0x28
 8000e08:	0032      	movs	r2, r6
 8000e0a:	001f      	movs	r7, r3
 8000e0c:	0028      	movs	r0, r5
 8000e0e:	9b01      	ldr	r3, [sp, #4]
 8000e10:	6a21      	ldr	r1, [r4, #32]
 8000e12:	47b8      	blx	r7
 8000e14:	2800      	cmp	r0, #0
 8000e16:	dc07      	bgt.n	8000e28 <__sflush_r+0xfc>
 8000e18:	89a2      	ldrh	r2, [r4, #12]
 8000e1a:	2340      	movs	r3, #64	@ 0x40
 8000e1c:	2001      	movs	r0, #1
 8000e1e:	4313      	orrs	r3, r2
 8000e20:	b21b      	sxth	r3, r3
 8000e22:	81a3      	strh	r3, [r4, #12]
 8000e24:	4240      	negs	r0, r0
 8000e26:	bdfe      	pop	{r1, r2, r3, r4, r5, r6, r7, pc}
 8000e28:	9b01      	ldr	r3, [sp, #4]
 8000e2a:	1836      	adds	r6, r6, r0
 8000e2c:	1a1b      	subs	r3, r3, r0
 8000e2e:	9301      	str	r3, [sp, #4]
 8000e30:	e7e6      	b.n	8000e00 <__sflush_r+0xd4>
 8000e32:	46c0      	nop			@ (mov r8, r8)
 8000e34:	20400001 	.word	0x20400001

08000e38 <_fflush_r>:
 8000e38:	690b      	ldr	r3, [r1, #16]
 8000e3a:	b570      	push	{r4, r5, r6, lr}
 8000e3c:	0005      	movs	r5, r0
 8000e3e:	000c      	movs	r4, r1
 8000e40:	2b00      	cmp	r3, #0
 8000e42:	d102      	bne.n	8000e4a <_fflush_r+0x12>
 8000e44:	2500      	movs	r5, #0
 8000e46:	0028      	movs	r0, r5
 8000e48:	bd70      	pop	{r4, r5, r6, pc}
 8000e4a:	2800      	cmp	r0, #0
 8000e4c:	d004      	beq.n	8000e58 <_fflush_r+0x20>
 8000e4e:	6a03      	ldr	r3, [r0, #32]
 8000e50:	2b00      	cmp	r3, #0
 8000e52:	d101      	bne.n	8000e58 <_fflush_r+0x20>
 8000e54:	f7ff fc6a 	bl	800072c <__sinit>
 8000e58:	220c      	movs	r2, #12
 8000e5a:	5ea3      	ldrsh	r3, [r4, r2]
 8000e5c:	2b00      	cmp	r3, #0
 8000e5e:	d0f1      	beq.n	8000e44 <_fflush_r+0xc>
 8000e60:	6e62      	ldr	r2, [r4, #100]	@ 0x64
 8000e62:	07d2      	lsls	r2, r2, #31
 8000e64:	d404      	bmi.n	8000e70 <_fflush_r+0x38>
 8000e66:	059b      	lsls	r3, r3, #22
 8000e68:	d402      	bmi.n	8000e70 <_fflush_r+0x38>
 8000e6a:	6da0      	ldr	r0, [r4, #88]	@ 0x58
 8000e6c:	f7ff fe5f 	bl	8000b2e <__retarget_lock_acquire_recursive>
 8000e70:	0028      	movs	r0, r5
 8000e72:	0021      	movs	r1, r4
 8000e74:	f7ff ff5a 	bl	8000d2c <__sflush_r>
 8000e78:	6e63      	ldr	r3, [r4, #100]	@ 0x64
 8000e7a:	0005      	movs	r5, r0
 8000e7c:	07db      	lsls	r3, r3, #31
 8000e7e:	d4e2      	bmi.n	8000e46 <_fflush_r+0xe>
 8000e80:	89a3      	ldrh	r3, [r4, #12]
 8000e82:	059b      	lsls	r3, r3, #22
 8000e84:	d4df      	bmi.n	8000e46 <_fflush_r+0xe>
 8000e86:	6da0      	ldr	r0, [r4, #88]	@ 0x58
 8000e88:	f7ff fe52 	bl	8000b30 <__retarget_lock_release_recursive>
 8000e8c:	e7db      	b.n	8000e46 <_fflush_r+0xe>
	...

08000e90 <__swhatbuf_r>:
 8000e90:	b570      	push	{r4, r5, r6, lr}
 8000e92:	000e      	movs	r6, r1
 8000e94:	001d      	movs	r5, r3
 8000e96:	230e      	movs	r3, #14
 8000e98:	5ec9      	ldrsh	r1, [r1, r3]
 8000e9a:	0014      	movs	r4, r2
 8000e9c:	b096      	sub	sp, #88	@ 0x58
 8000e9e:	2900      	cmp	r1, #0
 8000ea0:	da0c      	bge.n	8000ebc <__swhatbuf_r+0x2c>
 8000ea2:	89b2      	ldrh	r2, [r6, #12]
 8000ea4:	2380      	movs	r3, #128	@ 0x80
 8000ea6:	0011      	movs	r1, r2
 8000ea8:	4019      	ands	r1, r3
 8000eaa:	421a      	tst	r2, r3
 8000eac:	d114      	bne.n	8000ed8 <__swhatbuf_r+0x48>
 8000eae:	2380      	movs	r3, #128	@ 0x80
 8000eb0:	00db      	lsls	r3, r3, #3
 8000eb2:	2000      	movs	r0, #0
 8000eb4:	6029      	str	r1, [r5, #0]
 8000eb6:	6023      	str	r3, [r4, #0]
 8000eb8:	b016      	add	sp, #88	@ 0x58
 8000eba:	bd70      	pop	{r4, r5, r6, pc}
 8000ebc:	466a      	mov	r2, sp
 8000ebe:	f000 f853 	bl	8000f68 <_fstat_r>
 8000ec2:	2800      	cmp	r0, #0
 8000ec4:	dbed      	blt.n	8000ea2 <__swhatbuf_r+0x12>
 8000ec6:	23f0      	movs	r3, #240	@ 0xf0
 8000ec8:	9901      	ldr	r1, [sp, #4]
 8000eca:	021b      	lsls	r3, r3, #8
 8000ecc:	4019      	ands	r1, r3
 8000ece:	4b04      	ldr	r3, [pc, #16]	@ (8000ee0 <__swhatbuf_r+0x50>)
 8000ed0:	18c9      	adds	r1, r1, r3
 8000ed2:	424b      	negs	r3, r1
 8000ed4:	4159      	adcs	r1, r3
 8000ed6:	e7ea      	b.n	8000eae <__swhatbuf_r+0x1e>
 8000ed8:	2100      	movs	r1, #0
 8000eda:	2340      	movs	r3, #64	@ 0x40
 8000edc:	e7e9      	b.n	8000eb2 <__swhatbuf_r+0x22>
 8000ede:	46c0      	nop			@ (mov r8, r8)
 8000ee0:	ffffe000 	.word	0xffffe000

08000ee4 <__smakebuf_r>:
 8000ee4:	b5f0      	push	{r4, r5, r6, r7, lr}
 8000ee6:	2602      	movs	r6, #2
 8000ee8:	898b      	ldrh	r3, [r1, #12]
 8000eea:	0005      	movs	r5, r0
 8000eec:	000c      	movs	r4, r1
 8000eee:	b085      	sub	sp, #20
 8000ef0:	4233      	tst	r3, r6
 8000ef2:	d007      	beq.n	8000f04 <__smakebuf_r+0x20>
 8000ef4:	0023      	movs	r3, r4
 8000ef6:	3347      	adds	r3, #71	@ 0x47
 8000ef8:	6023      	str	r3, [r4, #0]
 8000efa:	6123      	str	r3, [r4, #16]
 8000efc:	2301      	movs	r3, #1
 8000efe:	6163      	str	r3, [r4, #20]
 8000f00:	b005      	add	sp, #20
 8000f02:	bdf0      	pop	{r4, r5, r6, r7, pc}
 8000f04:	ab03      	add	r3, sp, #12
 8000f06:	aa02      	add	r2, sp, #8
 8000f08:	f7ff ffc2 	bl	8000e90 <__swhatbuf_r>
 8000f0c:	9f02      	ldr	r7, [sp, #8]
 8000f0e:	9001      	str	r0, [sp, #4]
 8000f10:	0039      	movs	r1, r7
 8000f12:	0028      	movs	r0, r5
 8000f14:	f7ff fe7a 	bl	8000c0c <_malloc_r>
 8000f18:	2800      	cmp	r0, #0
 8000f1a:	d108      	bne.n	8000f2e <__smakebuf_r+0x4a>
 8000f1c:	220c      	movs	r2, #12
 8000f1e:	5ea3      	ldrsh	r3, [r4, r2]
 8000f20:	059a      	lsls	r2, r3, #22
 8000f22:	d4ed      	bmi.n	8000f00 <__smakebuf_r+0x1c>
 8000f24:	2203      	movs	r2, #3
 8000f26:	4393      	bics	r3, r2
 8000f28:	431e      	orrs	r6, r3
 8000f2a:	81a6      	strh	r6, [r4, #12]
 8000f2c:	e7e2      	b.n	8000ef4 <__smakebuf_r+0x10>
 8000f2e:	2380      	movs	r3, #128	@ 0x80
 8000f30:	89a2      	ldrh	r2, [r4, #12]
 8000f32:	6020      	str	r0, [r4, #0]
 8000f34:	4313      	orrs	r3, r2
 8000f36:	81a3      	strh	r3, [r4, #12]
 8000f38:	9b03      	ldr	r3, [sp, #12]
 8000f3a:	6120      	str	r0, [r4, #16]
 8000f3c:	6167      	str	r7, [r4, #20]
 8000f3e:	2b00      	cmp	r3, #0
 8000f40:	d00c      	beq.n	8000f5c <__smakebuf_r+0x78>
 8000f42:	0028      	movs	r0, r5
 8000f44:	230e      	movs	r3, #14
 8000f46:	5ee1      	ldrsh	r1, [r4, r3]
 8000f48:	f000 f820 	bl	8000f8c <_isatty_r>
 8000f4c:	2800      	cmp	r0, #0
 8000f4e:	d005      	beq.n	8000f5c <__smakebuf_r+0x78>
 8000f50:	2303      	movs	r3, #3
 8000f52:	89a2      	ldrh	r2, [r4, #12]
 8000f54:	439a      	bics	r2, r3
 8000f56:	3b02      	subs	r3, #2
 8000f58:	4313      	orrs	r3, r2
 8000f5a:	81a3      	strh	r3, [r4, #12]
 8000f5c:	89a3      	ldrh	r3, [r4, #12]
 8000f5e:	9a01      	ldr	r2, [sp, #4]
 8000f60:	4313      	orrs	r3, r2
 8000f62:	81a3      	strh	r3, [r4, #12]
 8000f64:	e7cc      	b.n	8000f00 <__smakebuf_r+0x1c>
	...

08000f68 <_fstat_r>:
 8000f68:	2300      	movs	r3, #0
 8000f6a:	b570      	push	{r4, r5, r6, lr}
 8000f6c:	4d06      	ldr	r5, [pc, #24]	@ (8000f88 <_fstat_r+0x20>)
 8000f6e:	0004      	movs	r4, r0
 8000f70:	0008      	movs	r0, r1
 8000f72:	0011      	movs	r1, r2
 8000f74:	602b      	str	r3, [r5, #0]
 8000f76:	f7ff fa2c 	bl	80003d2 <_fstat>
 8000f7a:	1c43      	adds	r3, r0, #1
 8000f7c:	d103      	bne.n	8000f86 <_fstat_r+0x1e>
 8000f7e:	682b      	ldr	r3, [r5, #0]
 8000f80:	2b00      	cmp	r3, #0
 8000f82:	d000      	beq.n	8000f86 <_fstat_r+0x1e>
 8000f84:	6023      	str	r3, [r4, #0]
 8000f86:	bd70      	pop	{r4, r5, r6, pc}
 8000f88:	200001b8 	.word	0x200001b8

08000f8c <_isatty_r>:
 8000f8c:	2300      	movs	r3, #0
 8000f8e:	b570      	push	{r4, r5, r6, lr}
 8000f90:	4d06      	ldr	r5, [pc, #24]	@ (8000fac <_isatty_r+0x20>)
 8000f92:	0004      	movs	r4, r0
 8000f94:	0008      	movs	r0, r1
 8000f96:	602b      	str	r3, [r5, #0]
 8000f98:	f7ff fa29 	bl	80003ee <_isatty>
 8000f9c:	1c43      	adds	r3, r0, #1
 8000f9e:	d103      	bne.n	8000fa8 <_isatty_r+0x1c>
 8000fa0:	682b      	ldr	r3, [r5, #0]
 8000fa2:	2b00      	cmp	r3, #0
 8000fa4:	d000      	beq.n	8000fa8 <_isatty_r+0x1c>
 8000fa6:	6023      	str	r3, [r4, #0]
 8000fa8:	bd70      	pop	{r4, r5, r6, pc}
 8000faa:	46c0      	nop			@ (mov r8, r8)
 8000fac:	200001b8 	.word	0x200001b8

08000fb0 <_sbrk_r>:
 8000fb0:	2300      	movs	r3, #0
 8000fb2:	b570      	push	{r4, r5, r6, lr}
 8000fb4:	4d06      	ldr	r5, [pc, #24]	@ (8000fd0 <_sbrk_r+0x20>)
 8000fb6:	0004      	movs	r4, r0
 8000fb8:	0008      	movs	r0, r1
 8000fba:	602b      	str	r3, [r5, #0]
 8000fbc:	f7ff fa2c 	bl	8000418 <_sbrk>
 8000fc0:	1c43      	adds	r3, r0, #1
 8000fc2:	d103      	bne.n	8000fcc <_sbrk_r+0x1c>
 8000fc4:	682b      	ldr	r3, [r5, #0]
 8000fc6:	2b00      	cmp	r3, #0
 8000fc8:	d000      	beq.n	8000fcc <_sbrk_r+0x1c>
 8000fca:	6023      	str	r3, [r4, #0]
 8000fcc:	bd70      	pop	{r4, r5, r6, pc}
 8000fce:	46c0      	nop			@ (mov r8, r8)
 8000fd0:	200001b8 	.word	0x200001b8

08000fd4 <_init>:
 8000fd4:	b5f8      	push	{r3, r4, r5, r6, r7, lr}
 8000fd6:	46c0      	nop			@ (mov r8, r8)
 8000fd8:	bcf8      	pop	{r3, r4, r5, r6, r7}
 8000fda:	bc08      	pop	{r3}
 8000fdc:	469e      	mov	lr, r3
 8000fde:	4770      	bx	lr

08000fe0 <_fini>:
 8000fe0:	b5f8      	push	{r3, r4, r5, r6, r7, lr}
 8000fe2:	46c0      	nop			@ (mov r8, r8)
 8000fe4:	bcf8      	pop	{r3, r4, r5, r6, r7}
 8000fe6:	bc08      	pop	{r3}
 8000fe8:	469e      	mov	lr, r3
 8000fea:	4770      	bx	lr
